((dp0
S'arm_dbg_args'
p1
S'-via:"c:\\Matz_Stuff\\src\\BallGame\\build_ballgame_vc12x\\BallGame_vc12x_arm_debug.via" -qemu'
p2
sS'game-icf'
p3
S''
p4
sS'dist'
p5
NsS'csproj'
p6
g4
sS'module_path_append'
p7
NsS'global_path'
p8
S'c:\\matz_stuff\\src'
p9
sS'system_path'
p10
S'c:\\marmalade\\7.3\\s3e\\makefile_builder'
p11
sS'android_x86_dbg_args'
p12
S'../../tools/DeployTool/DeployTool.exe --dir "c:\\Matz_Stuff\\src\\BallGame\\build_ballgame_vc12x"'
p13
sS'no-emit'
p14
NsS'arm-float-abi'
p15
g4
sS'arm_rel_rtsm_args'
p16
S'-via:"c:\\Matz_Stuff\\src\\BallGame\\build_ballgame_vc12x\\BallGame_vc12x_arm_release.via" -qemu'
p17
sS'amd64'
p18
NsS'line-width'
p19
I80
sS'gcc_dbg_args'
p20
S'-via:"c:\\Matz_Stuff\\src\\BallGame\\build_ballgame_vc12x\\BallGame_vc12x_gcc_debug.via" -qemu'
p21
sS'android-x86'
p22
NsS'x86_dbg_exe'
p23
S'c:/marmalade/7.3/s3e\\win32\\s3e_simulator_debug.exe'
p24
sS'disable-runtime-checks'
p25
NsS'release'
p26
NsS'no-make'
p27
NsS'xcode-x86-build-settings'
p28
g4
sS'optimise-size'
p29
NsS'output-name-debug'
p30
g4
sS'arm-fpu'
p31
g4
sS'proj_name'
p32
S'BallGame_vc12x'
p33
sS'rvct-version'
p34
S'none'
p35
sS'compiler'
p36
g4
sS'execute'
p37
I01
sS'compile-static'
p38
NsS'msvc-project'
p39
NsS'buildenv'
p40
S'VC12X'
p41
sS'quick'
p42
NsS'module_path'
p43
NsS'use-release-std-libs'
p44
NsS'using_perforce'
p45
I00
sS'tizen-x86'
p46
NsS'mips-s3e'
p47
NsS's3e-api-lib-name'
p48
S's3e_api_iwgl'
p49
sS'ios-no-pic'
p50
NsS'shared-arm-lib'
p51
NsS'arm-cpu'
p52
g4
sS'compile-thumb'
p53
NsS'no-ide'
p54
I01
sS'msvc-version'
p55
S'6.0'
p56
sS'arm'
p57
NsS'builddir'
p58
g4
sS'compile-debug-as-release'
p59
I0
sS'arm-arch'
p60
g4
sS'brief'
p61
NsS'dll'
p62
NsS'buildenv-toolset'
p63
g4
sS'version'
p64
NsS'ccache'
p65
I0
sS'offline'
p66
NsS'ios-version'
p67
g4
sS'hub_data'
p68
g4
sS'fake_vc_call'
p69
NsS'jobs'
p70
I0
sS'linkflags'
p71
NsS'debug'
p72
I01
sS'xcode-build-order'
p73
g4
sS'gcc_rel_rtsm_args'
p74
S'-via:"c:\\Matz_Stuff\\src\\BallGame\\build_ballgame_vc12x\\BallGame_vc12x_gcc_release.via" -qemu'
p75
sS'done_defaults'
p76
I1
sS'path'
p77
NsS's3e-data-dir'
p78
S'c:/Matz_Stuff/src/BallGame\\data'
p79
sS'enable-exceptions'
p80
NsS'osx-dll'
p81
NsS'extension'
p82
g4
sS'no-vc6'
p83
NsS'non-interactive'
p84
NsS'win32-console'
p85
NsS'dist-format'
p86
g4
sS's3e-force-arch'
p87
NsS'dump_defines'
p88
NsS'use_prebuilt'
p89
NsS'gcc-version'
p90
g4
sS'x86_dbg_args'
p91
S'-via:"c:\\Matz_Stuff\\src\\BallGame\\build_ballgame_vc12x\\BallGame_vc12x_debug.via"'
p92
sS'tizen_x86_dbg_args'
p93
g13
sS'arm-debugger'
p94
g4
sS'use_temp_extension'
p95
NsS'verbose'
p96
I0
sS'log'
p97
NsS'no-strip'
p98
NsS'rebuild'
p99
NsS'win32-simulator-dll'
p100
NsS'strict'
p101
NsS'mips_dbg_args'
p102
g13
sS'enable-global-path'
p103
NsS'cflags'
p104
NsS'dist-dir'
p105
g4
sS'xcode-arm-build-settings'
p106
g4
sS'jflags'
p107
NsS'csprojSDKRefs'
p108
g4
sS'tizen_x86_rel_exe'
p109
S'c:\\marmalade\\7.3\\s3e\\makefile_builder\\tool_launcher.exe'
p110
sS'test-assets'
p111
g4
sS'distcc'
p112
NsS'external-compiler'
p113
NsS'no-distcc'
p114
NsS'preinclude'
p115
NsS'using_sdk'
p116
I01
sS'nologo'
p117
NsS'warn-level'
p118
I2
sS'mips_dbg_exe'
p119
g110
sS'mkb_in'
p120
S'c:/Matz_Stuff/src/BallGame/BallGame.mkb'
p121
sS'tizen_x86_dbg_exe'
p122
g110
sS'arm_dbg_exe'
p123
S'c:/marmalade/7.3/s3e\\bin\\armdebug.exe'
p124
sS'csprojDLLRef'
p125
NsS'tizen_x86_rel_args'
p126
g13
sS'android_x86_dbg_exe'
p127
g110
sS'test-config'
p128
g4
sS'list-targets'
p129
NsS'arm_rel_exe'
p130
g110
sS'arm_rel_args'
p131
g13
sS'makedeps'
p132
NsS'android_x86_rel_exe'
p133
g110
sS'default-buildenv'
p134
S'VC12X'
p135
sS'x86_rel_exe'
p136
g24
sS'preprocess-java'
p137
NsS'mips_rel_args'
p138
g13
sS'defines'
p139
NsS'lib'
p140
NsS'global_argv'
p141
(lp142
S'C:\\Marmalade\\7.3\\s3e\\makefile_builder\\mkb.py'
p143
aS'C:/Matz_Stuff/src/BallGame/BallGame.mkb'
p144
aS'--buildenv=VC12X'
p145
aS'--debug'
p146
aS'--x86'
p147
aS'--no-ide'
p148
aS'--execute'
p149
asS'make'
p150
NsS'optimise-speed'
p151
NsS'internal'
p152
NsS'enable-stdinc'
p153
NsS'deploy-only'
p154
NsS'x86'
p155
I01
sS'deploy'
p156
g4
sS'x86_run_exe'
p157
S'c:/marmalade/7.3/s3e\\win32\\s3e_console.exe'
p158
sS'x86_rel_args'
p159
S'-via:"c:\\Matz_Stuff\\src\\BallGame\\build_ballgame_vc12x\\BallGame_vc12x_release.via"'
p160
sS'gcc_rel_args'
p161
g13
sS'mips'
p162
NsS'xcode-build-settings'
p163
g4
sS'incredibuild'
p164
NsS'strict-compile'
p165
NsS'use-auto-subdirs'
p166
NsS'mips_rel_exe'
p167
g110
sS'android_x86_rel_args'
p168
g13
sS'app-icf'
p169
g4
sS'deployargs'
p170
NsS'iosnativedebug'
p171
NsS'mkf_in'
p172
(lp173
S'c:\\marmalade\\7.3\\modules\\iwutil\\iwutil.mkf'
p174
aS'c:\\marmalade\\7.3\\modules\\third_party\\libjpeg\\libjpeg.mkf'
p175
aS'c:\\marmalade\\7.3\\modules\\third_party\\libpng\\libpng.mkf'
p176
aS'c:\\marmalade\\7.3\\modules\\third_party\\zlib\\zlib.mkf'
p177
aS'c:\\marmalade\\7.3\\modules\\iw2dscenegraphcore\\iw2dscenegraphcore.mkf'
p178
aS'c:\\marmalade\\7.3\\modules\\iw2dscenegraph\\iw2dscenegraph.mkf'
p179
aS'c:\\marmalade\\7.3\\modules\\iw2d\\iw2d.mkf'
p180
aS'c:\\marmalade\\7.3\\modules\\iwgx\\iwgx.mkf'
p181
aS'c:\\marmalade\\7.3\\modules\\iwgl\\iwgl.mkf'
p182
aS'c:\\marmalade\\7.3\\modules\\iwgeom\\iwgeom.mkf'
p183
aS'c:\\marmalade\\7.3\\modules\\iwresmanager\\iwresmanager.mkf'
p184
aS'c:\\marmalade\\7.3\\extensions\\pvrtextool\\pvrtextool.mkf'
p185
aS'c:\\marmalade\\7.3\\modules\\iwgxfont\\iwgxfont.mkf'
p186
aS'c:\\marmalade\\7.3\\modules\\third_party\\tiniconv\\tiniconv.mkf'
p187
aS'c:\\marmalade\\7.3\\modules\\iwtween\\iwtween.mkf'
p188
asS'strict-mkb'
p189
NsS'executeargs'
p190
NsS'clean'
p191
NsS'no-asm'
p192
NsS'output-name'
p193
g4
sS'no-modules'
p194
NsS'find_define'
p195
g4
s(dp196
S'c:\\marmalade\\7.3\\s3e\\makefile_builder\\templates\\xcode_pbxuser.py'
p197
F1404462948.0
sS'c:\\marmalade\\7.3\\s3e\\makefile_builder\\plugins\\s3e_xcode.pyc'
p198
F1406573570.2043076
sS'c:\\marmalade\\7.3\\s3e\\makefile_builder\\plugins\\osx_scons.pyc'
p199
F1404464240.0
sS'c:\\marmalade\\7.3\\s3e\\makefile_builder\\extensions'
p200
F1406566470.8949306
sS'c:\\marmalade\\7.3\\s3e\\makefile_builder\\templates\\win8_sln.pyc'
p201
F1404464240.0
sS'c:\\marmalade\\7.3\\s3e\\makefile_builder\\plugins\\s3e_wp8.pyc'
p202
F1404464240.0
sS'c:\\marmalade\\7.3\\s3e\\makefile_builder\\mkb_launcher.exe'
p203
F1404463306.0
sS'c:\\marmalade\\7.3\\s3e\\makefile_builder\\plugins\\null.pyc'
p204
F1404464240.0
sS'c:\\marmalade\\7.3\\s3e\\makefile_builder\\plugins\\s3e_web.pyc'
p205
F1404464240.0
sS'c:\\marmalade\\7.3\\s3e\\makefile_builder\\plugins\\SConsEmitter.pyc'
p206
F1404464240.0
sS'c:\\marmalade\\7.3\\s3e\\makefile_builder\\mkb_util.pyc'
p207
F1404464240.0
sS'c:\\marmalade\\7.3\\s3e\\makefile_builder\\templates\\ws8_csproj_user.pyc'
p208
F1404464240.0
sS'c:\\marmalade\\7.3\\s3e\\makefile_builder\\mkb_upstream.pyc'
p209
F1404464240.0
sS'c:\\marmalade\\7.3\\s3e\\makefile_builder\\templates\\win8_csproj.pyc'
p210
F1404464240.0
sS'c:\\marmalade\\7.3\\s3e\\makefile_builder\\docs\\deprecated.options.txt'
p211
F1404462948.0
sS'c:\\marmalade\\7.3\\s3e\\makefile_builder\\templates\\wp8_csproj_user.pyc'
p212
F1404464240.0
sS'c:\\marmalade\\7.3\\s3e\\makefile_builder\\extensions\\make_dist.py'
p213
F1404462948.0
sS'c:\\marmalade\\7.3\\s3e\\makefile_builder\\docs\\deprecated.defines.txt'
p214
F1404462948.0
sS'c:\\marmalade\\7.3\\s3e\\makefile_builder\\templates\\wp8_csproj.pyc'
p215
F1404464240.0
sS'c:\\marmalade\\7.3\\s3e\\makefile_builder\\templates\\vc8_user.pyc'
p216
F1404464240.0
sS'c:\\marmalade\\7.3\\s3e\\makefile_builder\\plugins\\wp8_wp8.pyc'
p217
F1404464240.0
sS'c:\\marmalade\\7.3\\s3e\\makefile_builder\\deployment.pyc'
p218
F1404464240.0
sS'c:\\marmalade\\7.3\\s3e\\makefile_builder\\docs\\mkb.defines.txt'
p219
F1404462948.0
sS'c:\\marmalade\\7.3\\s3e\\makefile_builder\\plugins'
p220
F1406573570.2043076
sS'c:\\marmalade\\7.3\\s3e\\makefile_builder\\templates\\wp8_sln.pyc'
p221
F1404464240.0
sS'c:\\marmalade\\7.3\\s3e\\makefile_builder\\templates\\rvct_linker_script'
p222
F1404462948.0
sS'c:\\marmalade\\7.3\\s3e\\makefile_builder\\mkb_main.pyc'
p223
F1404464240.0
sS'c:\\marmalade\\7.3\\s3e\\makefile_builder\\templates\\win32_vcxproj_filters.pyc'
p224
F1404464240.0
sS'c:\\marmalade\\7.3\\s3e\\makefile_builder\\templates\\xcode4_DeployTool.xcscheme'
p225
F1404462948.0
sS'c:\\marmalade\\7.3\\s3e\\makefile_builder\\plugins\\s3e_ws81.pyc'
p226
F1404464240.0
sS'c:\\marmalade\\7.3\\s3e\\makefile_builder\\templates\\scons.pyc'
p227
F1404464240.0
sS'c:\\marmalade\\7.3\\s3e\\makefile_builder\\templates\\ws8_csproj.pyc'
p228
F1404464240.0
sS'c:\\marmalade\\7.3\\s3e\\makefile_builder\\templates'
p229
F1406566470.891926
sS'c:\\marmalade\\7.3\\s3e\\makefile_builder\\plugins\\s3e_scons.pyc'
p230
F1404464240.0
sS'c:\\marmalade\\7.3\\s3e\\makefile_builder\\plugins\\XcodeEmitter.py'
p231
F1404462948.0
sS'c:\\marmalade\\7.3\\s3e\\makefile_builder\\templates\\win32_dsp.pyc'
p232
F1404464240.0
sS'c:\\marmalade\\7.3\\s3e\\makefile_builder\\plugins\\s3e_qmake.py'
p233
F1404462948.0
sS'c:\\marmalade\\7.3\\s3e\\makefile_builder\\mkb.py'
p234
F1404462948.0
sS'c:\\marmalade\\7.3\\s3e\\makefile_builder\\templates\\win32_sln.pyc'
p235
F1404464240.0
sS'c:\\marmalade\\7.3\\s3e\\makefile_builder\\plugins\\linux_scons.pyc'
p236
F1404464240.0
sS'c:\\marmalade\\7.3\\s3e\\makefile_builder\\templates\\ws81_ext_csproj.pyc'
p237
F1404464240.0
sS'c:\\marmalade\\7.3\\s3e\\makefile_builder\\templates\\win8_vcxproj.pyc'
p238
F1404464240.0
sS'c:\\marmalade\\7.3\\s3e\\makefile_builder\\templates\\win32_vcxproj.pyc'
p239
F1404464240.0
sS'c:\\marmalade\\7.3\\s3e\\makefile_builder\\templates\\vc7_suo.pyc'
p240
F1404464240.0
sS'c:\\marmalade\\7.3\\s3e\\makefile_builder\\templates\\make.py'
p241
F1404462948.0
sS'c:\\marmalade\\7.3\\s3e\\makefile_builder\\templates\\wp8_vcxproj.pyc'
p242
F1404464240.0
sS'c:\\marmalade\\7.3\\s3e\\makefile_builder\\plugins\\MakeEmitter.pyc'
p243
F1404464240.0
sS'c:\\marmalade\\7.3\\s3e\\makefile_builder\\plugins\\deploy.pyc'
p244
F1404464240.0
sS'c:\\marmalade\\7.3\\s3e\\makefile_builder\\plugins\\VisualStudioEmitter.pyc'
p245
F1404464240.0
sS'c:\\marmalade\\7.3\\s3e\\makefile_builder\\plugins\\ws81_ws81.pyc'
p246
F1404464240.0
sS'c:\\marmalade\\7.3\\s3e\\makefile_builder\\docs\\parse_options.pyc'
p247
F1404464240.0
sS'c:\\marmalade\\7.3\\s3e\\makefile_builder\\templates\\win32_dsw.pyc'
p248
F1404464240.0
sS'c:\\marmalade\\7.3\\s3e\\makefile_builder\\plugins\\s3e_make.pyc'
p249
F1404464240.0
sS'c:\\marmalade\\7.3\\s3e\\makefile_builder\\templates\\ws8_sln.pyc'
p250
F1404464240.0
sS'c:\\marmalade\\7.3\\s3e\\makefile_builder\\templates\\ws81_vcxproj.pyc'
p251
F1404464240.0
sS'c:\\marmalade\\7.3\\s3e\\makefile_builder\\templates\\win8_csproj_user.pyc'
p252
F1404464240.0
sS'c:\\marmalade\\7.3\\s3e\\makefile_builder\\templates\\ws81_ext_sln.pyc'
p253
F1404464240.0
sS'c:\\marmalade\\7.3\\s3e\\makefile_builder\\plugins\\XcodeEmitter.pyc'
p254
F1406573570.0636642
sS'c:\\marmalade\\7.3\\s3e\\makefile_builder\\templates\\mips_linker_script'
p255
F1404462948.0
sS'c:\\marmalade\\7.3\\s3e\\makefile_builder\\docs'
p256
F1406566470.9065447
sS'c:\\marmalade\\7.3\\s3e\\makefile_builder\\templates\\xcode4_arm.xcscheme'
p257
F1404462948.0
sS'c:\\marmalade\\7.3\\s3e\\makefile_builder\\templates\\ws81_csproj.pyc'
p258
F1404464240.0
sS'c:\\marmalade\\7.3\\s3e\\makefile_builder\\templates\\ws8_ext_sln.pyc'
p259
F1404464240.0
sS'c:\\marmalade\\7.3\\s3e\\makefile_builder\\plugins\\Emitter.pyc'
p260
F1404464240.0
sS'c:\\marmalade\\7.3\\s3e\\makefile_builder\\templates\\template.opt'
p261
F1404462948.0
sS'c:\\marmalade\\7.3\\s3e\\makefile_builder\\plugins\\vc6_utils.pyc'
p262
F1404464240.0
sS'c:\\marmalade\\7.3\\s3e\\makefile_builder\\templates\\linker_script'
p263
F1404462948.0
sS'c:\\marmalade\\7.3\\s3e\\makefile_builder\\templates\\xcode4.xcscheme'
p264
F1404462948.0
sS'c:\\marmalade\\7.3\\s3e\\makefile_builder\\plugins\\Win8Emitter.pyc'
p265
F1404464240.0
sS'c:\\marmalade\\7.3\\s3e\\makefile_builder\\templates\\Info.plist'
p266
F1404462948.0
sS'c:\\marmalade\\7.3\\s3e\\makefile_builder\\plugins\\s3e_xcode.py'
p267
F1404462948.0
sS'c:\\marmalade\\7.3\\s3e\\makefile_builder\\docs\\options.txt'
p268
F1404462948.0
sS'c:\\marmalade\\7.3\\s3e\\makefile_builder\\templates\\ws81_csproj_user.pyc'
p269
F1404464240.0
sS'c:\\marmalade\\7.3\\s3e\\makefile_builder\\templates\\qmake.py'
p270
F1404462948.0
sS'c:\\marmalade\\7.3\\s3e\\makefile_builder\\plugins\\win32_vc6.pyc'
p271
F1404464240.0
sS'c:\\marmalade\\7.3\\s3e\\makefile_builder\\plugins\\ws8_ws8.pyc'
p272
F1404464240.0
sS'c:\\marmalade\\7.3\\s3e\\makefile_builder\\plugins\\osx_xcode.pyc'
p273
F1404464240.0
sS'c:\\marmalade\\7.3\\s3e\\makefile_builder\\templates\\ws81_sln.pyc'
p274
F1404464240.0
sS'c:\\marmalade\\7.3\\s3e\\makefile_builder\\templates\\win32_vcproj.pyc'
p275
F1404464240.0
sS'c:\\marmalade\\7.3\\s3e\\makefile_builder\\plugins\\s3e_vc6.pyc'
p276
F1404464240.0
sS'c:\\marmalade\\7.3\\s3e\\makefile_builder\\mkb_option.pyc'
p277
F1404464240.0
sS'c:\\marmalade\\7.3\\s3e\\makefile_builder\\templates\\vc6_opt.pyc'
p278
F1404464240.0
sS'c:\\marmalade\\7.3\\s3e\\makefile_builder\\templates\\win8_ext_csproj.pyc'
p279
F1404464240.0
sS'c:\\marmalade\\7.3\\s3e\\makefile_builder\\plugins\\s3e_win8.pyc'
p280
F1404464240.0
sS'c:\\marmalade\\7.3\\s3e\\makefile_builder\\templates\\template.suo'
p281
F1404462948.0
sS'c:\\marmalade\\7.3\\s3e\\makefile_builder\\templates\\ws8_vcxproj.pyc'
p282
F1404464240.0
sS'c:\\marmalade\\7.3\\s3e\\makefile_builder\\templates\\vc10_user.pyc'
p283
F1404464240.0
sS'c:\\marmalade\\7.3\\s3e\\makefile_builder\\templates\\wp8_ext_csproj.pyc'
p284
F1404464240.0
sS'c:\\marmalade\\7.3\\s3e\\makefile_builder\\plugins\\java.pyc'
p285
F1404464240.0
sS'c:\\marmalade\\7.3\\s3e\\makefile_builder\\templates\\MainWindow.xib'
p286
F1404462948.0
sS'c:\\marmalade\\7.3\\s3e\\makefile_builder\\templates\\qmake_user.py'
p287
F1404462948.0
sS'c:\\marmalade\\7.3\\s3e\\makefile_builder\\plugins\\win8_utils.pyc'
p288
F1404464240.0
sS'c:\\marmalade\\7.3\\s3e\\makefile_builder\\templates\\xcode.py'
p289
F1404462948.0
sS'c:\\marmalade\\7.3\\s3e\\makefile_builder\\mkb_parser.pyc'
p290
F1404464240.0
sS'c:\\marmalade\\7.3\\s3e\\makefile_builder\\plugins\\xcode4_schememanagement.pyc'
p291
F1406573570.0697296
sS'c:\\marmalade\\7.3\\s3e\\makefile_builder\\plugins\\s3e_qmake.pyc'
p292
F1406573570.1571877
sS'c:\\marmalade\\7.3\\s3e\\makefile_builder\\templates\\ws8_ext_csproj.pyc'
p293
F1404464240.0
sS'c:\\marmalade\\7.3\\s3e\\makefile_builder\\plugins\\S3EEmitter.pyc'
p294
F1404464240.0
sS'c:\\marmalade\\7.3\\s3e\\makefile_builder\\plugins\\xcode4_schememanagement.py'
p295
F1404462948.0
sS'c:\\marmalade\\7.3\\s3e\\makefile_builder\\plugins\\s3e_ws8.pyc'
p296
F1404464240.0
sS'c:\\marmalade\\7.3\\s3e\\makefile_builder\\mkb_globals.pyc'
p297
F1404464240.0
sS'c:\\marmalade\\7.3\\s3e\\makefile_builder\\templates\\gdb_start.txt'
p298
F1404462948.0
sS'c:\\marmalade\\7.3\\s3e\\makefile_builder\\docs\\deployment_options.txt'
p299
F1404462946.0
sS'c:\\marmalade\\7.3\\s3e\\makefile_builder\\plugins\\vc7_utils.pyc'
p300
F1404464240.0
sS'c:\\marmalade\\7.3\\s3e\\makefile_builder\\tool_launcher.exe'
p301
F1404463306.0
sS'c:\\marmalade\\7.3\\s3e\\makefile_builder\\plugins\\iphone.pyc'
p302
F1404464240.0
sccopy_reg
_reconstructor
p303
(cmkb_main
MkbFile
p304
c__builtin__
object
p305
Ntp306
Rp307
(dp308
g5
(lp309
sS'target_name'
p310
S'BallGame'
p311
sS'current_file'
p312
g121
sS'package_path'
p313
(lp314
sS'post_build'
p315
(lp316
(lp317
S'c:/marmalade/7.3/s3e/tools'
p318
aS'C:\\Marmalade\\7.3\\s3e\\python\\python.exe .\\process_map.py "$(TargetPath)"'
p319
aa(S'c:\\marmalade\\7.3\\s3e\\bin'
p320
S'"s3e_plink" -l "$(TargetPath)" '
p321
g155
tp322
asS'librarys'
p323
(lp324
g303
(cmkb_main
Library
p325
g305
Ntp326
Rp327
(dp328
S'name'
p329
S'vc6_compat.lib'
p330
sS'expand_name'
p331
I00
sS'include_spec_rvct_objs'
p332
(lp333
sS'include_all_objs'
p334
I00
sS'share_arm'
p335
I00
sS'arch'
p336
S'x86'
p337
sS'nodebug'
p338
I00
sg36
Nsbag303
(g325
g305
Ntp339
Rp340
(dp341
g329
S'iwutil'
p342
sg331
I01
sg332
(lp343
sg334
Nsg335
Nsg336
Nsg338
I00
sg36
Nsbag303
(g325
g305
Ntp344
Rp345
(dp346
g329
S'jpeg'
p347
sg331
I01
sg332
g343
sg334
Nsg335
Nsg336
Nsg338
I00
sg36
Nsbag303
(g325
g305
Ntp348
Rp349
(dp350
g329
S'z'
p351
sg331
I01
sg332
g343
sg334
Nsg335
Nsg336
Nsg338
I00
sg36
Nsbag303
(g325
g305
Ntp352
Rp353
(dp354
g329
S'png'
p355
sg331
I01
sg332
g343
sg334
Nsg335
Nsg336
Nsg338
I00
sg36
Nsbag303
(g325
g305
Ntp356
Rp357
(dp358
g329
S'iw2d'
p359
sg331
I01
sg332
g343
sg334
Nsg335
Nsg336
Nsg338
I00
sg36
Nsbag303
(g325
g305
Ntp360
Rp361
(dp362
g329
S'ATI_Compress_MT_VC7.lib'
p363
sg331
I00
sg332
g343
sg334
Nsg335
Nsg336
S'x86'
p364
sg338
I00
sg36
Nsbag303
(g325
g305
Ntp365
Rp366
(dp367
g329
S'iwgx'
p368
sg331
I01
sg332
g343
sg334
Nsg335
Nsg336
Nsg338
I00
sg36
Nsbag303
(g325
g305
Ntp369
Rp370
(dp371
g329
S'iwgl'
p372
sg331
I01
sg332
g343
sg334
Nsg335
Nsg336
Nsg338
I00
sg36
Nsbag303
(g325
g305
Ntp373
Rp374
(dp375
g329
S'iwgeom'
p376
sg331
I01
sg332
g343
sg334
Nsg335
Nsg336
Nsg338
I00
sg36
Nsbag303
(g325
g305
Ntp377
Rp378
(dp379
g329
S'iwresmanager'
p380
sg331
I01
sg332
g343
sg334
Nsg335
Nsg336
Nsg338
I00
sg36
Nsbag303
(g325
g305
Ntp381
Rp382
(dp383
g329
S'iwgxfont'
p384
sg331
I01
sg332
g343
sg334
Nsg335
Nsg336
Nsg338
I00
sg36
Nsbag303
(g325
g305
Ntp385
Rp386
(dp387
g329
S'tiniconv'
p388
sg331
I01
sg332
g343
sg334
Nsg335
Nsg336
Nsg338
I00
sg36
Nsbag303
(g325
g305
Ntp389
Rp390
(dp391
g329
S's3e_cpp'
p392
sg331
I01
sg332
g333
sg334
I00
sg335
I00
sg336
Nsg338
I00
sg36
Nsbag303
(g325
g305
Ntp393
Rp394
(dp395
g329
S's3e'
p396
sg331
I01
sg332
(lp397
S'iwcrt.o'
p398
asg334
I00
sg335
I00
sg336
Nsg338
I00
sg36
Nsbag303
(g325
g305
Ntp399
Rp400
(dp401
g329
g49
sg331
I01
sg332
g333
sg334
I00
sg335
I00
sg336
S'x86'
p402
sg338
I01
sg36
Nsbag303
(g325
g305
Ntp403
Rp404
(dp405
g329
g49
sg331
I01
sg332
g333
sg334
I00
sg335
I00
sg336
S'!x86'
p406
sg338
I01
sg36
Nsbag303
(g325
g305
Ntp407
Rp408
(dp409
g329
S'stdc++'
p410
sg331
I00
sg332
g333
sg334
I00
sg335
I00
sg336
S'mips'
p411
sg338
I00
sg36
Nsbag303
(g325
g305
Ntp412
Rp413
(dp414
g329
S'c'
p415
sg331
I00
sg332
g333
sg334
I00
sg335
I00
sg336
S'mips'
p416
sg338
I00
sg36
Nsbag303
(g325
g305
Ntp417
Rp418
(dp419
g329
S'm'
p420
sg331
I00
sg332
g333
sg334
I00
sg335
I00
sg336
S'mips'
p421
sg338
I00
sg36
Nsbag303
(g325
g305
Ntp422
Rp423
(dp424
g329
S'gcc'
p425
sg331
I00
sg332
g333
sg334
I00
sg335
I00
sg336
S'mips'
p426
sg338
I00
sg36
Nsbag303
(g325
g305
Ntp427
Rp428
(dp429
g329
S'stdc++'
p430
sg331
I00
sg332
g333
sg334
I00
sg335
I00
sg336
S'gcc_x86_android'
p431
sg338
I00
sg36
Nsbag303
(g325
g305
Ntp432
Rp433
(dp434
g329
g415
sg331
I00
sg332
g333
sg334
I00
sg335
I00
sg336
S'gcc_x86_android'
p435
sg338
I00
sg36
Nsbag303
(g325
g305
Ntp436
Rp437
(dp438
g329
g420
sg331
I00
sg332
g333
sg334
I00
sg335
I00
sg336
S'gcc_x86_android'
p439
sg338
I00
sg36
Nsbag303
(g325
g305
Ntp440
Rp441
(dp442
g329
g425
sg331
I00
sg332
g333
sg334
I00
sg335
I00
sg336
S'gcc_x86_android'
p443
sg338
I00
sg36
NsbasS'library_paths'
p444
(lp445
g303
(cmkb_main
LibraryPath
p446
g305
Ntp447
Rp448
(dp449
S'expand_path'
p450
I01
sg329
S'c:/marmalade/7.3/modules/iwutil'
p451
sbag303
(g446
g305
Ntp452
Rp453
(dp454
g450
I01
sg329
S'c:/marmalade/7.3/modules/third_party/libjpeg'
p455
sbag303
(g446
g305
Ntp456
Rp457
(dp458
g450
I01
sg329
S'c:/marmalade/7.3/modules/third_party/zlib'
p459
sbag303
(g446
g305
Ntp460
Rp461
(dp462
g450
I01
sg329
S'c:/marmalade/7.3/modules/third_party/libpng'
p463
sbag303
(g446
g305
Ntp464
Rp465
(dp466
g450
I01
sg329
S'c:/marmalade/7.3/modules/iw2d'
p467
sbag303
(g446
g305
Ntp468
Rp469
(dp470
g450
I00
sg329
S'c:/marmalade/7.3/modules/iwgx/atitools'
p471
sbag303
(g446
g305
Ntp472
Rp473
(dp474
g450
I01
sg329
S'c:/marmalade/7.3/modules/iwgx'
p475
sbag303
(g446
g305
Ntp476
Rp477
(dp478
g450
I01
sg329
S'c:/marmalade/7.3/modules/iwgl'
p479
sbag303
(g446
g305
Ntp480
Rp481
(dp482
g450
I01
sg329
S'c:/marmalade/7.3/modules/iwgeom'
p483
sbag303
(g446
g305
Ntp484
Rp485
(dp486
g450
I01
sg329
S'c:/marmalade/7.3/modules/iwresmanager'
p487
sbag303
(g446
g305
Ntp488
Rp489
(dp490
g450
I01
sg329
S'c:/marmalade/7.3/modules/iwgxfont'
p491
sbag303
(g446
g305
Ntp492
Rp493
(dp494
g450
I01
sg329
S'c:/marmalade/7.3/modules/third_party/tiniconv'
p495
sbag303
(g446
g305
Ntp496
Rp497
(dp498
g450
I01
sg329
S'c:/marmalade/7.3/s3e'
p499
sbasS'macros'
p500
(dp501
S'IW_USE_CALLSTACK'
p502
NsS'IW_MKF_IWGEOM'
p503
NsS'I3D_PLATFORM_S3E'
p504
NsS'IW_MKF_IW2DSCENEGRAPHCORE'
p505
NsS'IW_MKF_LIBJPEG'
p506
NsS'I3D_OS_S3E'
p507
NsS'IW_MKF_PVRTEXTOOL'
p508
NsS'IW_MKF_TINICONV'
p509
NsS'IW_APP_VERSION'
p510
S'"1.0"'
p511
sS'__S3E__'
p512
NsS'IW_MKF_IWRESMANAGER'
p513
NsS'IW_MKF_IWUTIL'
p514
NsS'IW_PLATFORM_S3E'
p515
NsS'IW_ASSERTION_CHANNEL_2D'
p516
S'1'
p517
sS'IW_APP_NAME'
p518
S'"BallGame"'
p519
sS'IW_MKF_IWGXFONT'
p520
NsS'IW_MKF_IWTWEEN'
p521
NsS'IW_MKF_ZLIB'
p522
NsS'IW_MKF_IWGX'
p523
NsS'IW_MKF_IW2DSCENEGRAPH'
p524
NsS'IW_USE_ASSERTIONS'
p525
NsS'_CRT_SECURE_NO_DEPRECATE'
p526
NsS'IW_MKF_IWGL'
p527
NsS'IW_MKF_LIBPNG'
p528
NsS'IW_TRACE_CHANNEL_IW_2DSCENEGRAPH'
p529
g517
sS'IW_DEBUG'
p530
NsS'IW_USE_TRACING'
p531
NsS'IW_ASSERTION_CHANNEL_IW_2DSCENEGRAPH'
p532
g517
sS'IW_TRACE_CHANNEL_PVRTEXTOOL'
p533
g517
sS'IW_SDK'
p534
NsS'S3E_INCLUDE_LEGACY'
p535
NsS'IW_TRACE_CHANNEL_PVRTEXTOOL_VERBOSE'
p536
S'2'
p537
sS'IW_MKF_IW2D'
p538
NsS'IW_ASSERTION_CHANNEL_PVRTEXTOOL'
p539
g517
ssS'done_warnings'
p540
(dp541
sS'subprojects'
p542
(dp543
g186
S'iwgxfont'
p544
sg178
S'iw2dscenegraphcore'
p545
sg188
S'iwtween'
p546
sg176
S'libpng'
p547
sg175
S'libjpeg'
p548
sg185
S'PVRTexTool'
p549
sg183
S'iwgeom'
p550
sg181
S'iwgx'
p551
sg180
S'iw2d'
p552
sg187
S'tiniconv'
p553
sg182
S'iwgl'
p554
sg174
S'iwutil'
p555
sg184
S'iwresmanager'
p556
sg177
S'zlib'
p557
sg179
S'iw2dscenegraph'
p558
ssS'deployments'
p559
(dp560
S'Default'
p561
g303
(cdeployment
Deployment
p562
g305
Ntp563
Rp564
(dp565
S'got_version'
p566
I0
sS'assets'
p567
g561
sS'mkb'
p568
g307
sS'target'
p569
Nsg336
(lp570
sS'options'
p571
(dp572
S'iphone-link-lib'
p573
(lp574
sS'game-icf'
p575
NsS'android-tm'
p576
NsS'winmobile-icon32'
p577
NsS'ws8-logo-image150x150'
p578
NsS'ws81-product-version'
p579
NsS'osx-ext-dll'
p580
(lp581
S'c:/marmalade/7.3/extensions/pvrtextool/lib/osx/libPVRTexTool.dylib'
p582
asS'iphone-provisioning-profile'
p583
NsS'ws8-splash-screen-image620x300'
p584
NsS'ws8-ext-capabilities'
p585
(lp586
sS'android-icon-hdpi'
p587
NsS'brew-icon-large'
p588
NsS'iphone-splash-full-orient'
p589
NsS'wp8-tile-fliptemplate-supports-large'
p590
NsS'iphone-show-status-bar'
p591
NsS'roku-requires-mkv'
p592
NsS'long-caption'
p593
NsS'android-pkgname'
p594
NsS'blackberry-permissions-read-device-identifying-information'
p595
NsS'ws81-certificate-end-date'
p596
NsS'psp-dlgcontentid'
p597
NsS'target-folder'
p598
NsS'tizen-dist1-CA-path'
p599
NsS'symbian-icon2-format'
p600
NsS'iphone-region'
p601
NsS'uiq3-icon3-mask'
p602
NsS'brew-encoding'
p603
NsS'android-x86'
p604
NsS'nds-initialcode'
p605
NsS'iphone-persistent-wifi'
p606
NsS'psp-snd0'
p607
NsS'osx-signing-identity-inst'
p608
NsS'winmobile-install-folder'
p609
NsS'android-external-res'
p610
(lp611
sS'ws8-product-version'
p612
NsS'brew-priviledges'
p613
NsS'iphone-icon-ipad-search'
p614
NsS'iphone-icon-ipad'
p615
NsS'roku-icon-focus-hd'
p616
NsS'roku-hidden'
p617
NsS'psp-titlename'
p618
NsS'symbian-icon1-mask'
p619
NsS'psp-parentallevel'
p620
NsS'splashscreen-use-all'
p621
NsS'wp8-author'
p622
NsS'symbian-disable-ecompxl'
p623
NsS'splashscreen-auto-onblack'
p624
NsS'ws81-ext-capabilities'
p625
(lp626
sS'iphone-development-key'
p627
NsS'winmobile-icon48'
p628
NsS'android-unsigned'
p629
NsS'osx-appstore-category'
p630
NsS'version-revision'
p631
NsS'roku-icon-focus-sd'
p632
NsS'android-keystore'
p633
NsS'winmobile-png90'
p634
NsS'iphone-icon-ipad-high-res'
p635
NsS'iphone-disable-ipad'
p636
NsS'wp8-product-id'
p637
NsS'ws81-splash-screen-background'
p638
NsS'wp8-ext-capabilities'
p639
(lp640
sS'iphone-ipad-only'
p641
NsS'symbian-icon1-mask-black'
p642
NsS'iphone-bundle-localisations'
p643
NsS'winmobile-png60'
p644
NsS'blackberry-permissions-access-shared'
p645
NsS'blackberry-author'
p646
NsS'android-icon-xxxhdpi'
p647
NsS'olddeploytoolstyle'
p648
NsS'android_icon_gallery'
p649
NsS'winmobile-cab-compress'
p650
NsS'ws81-ext-managed-dll'
p651
(lp652
sS'win32-icon'
p653
NsS'symbian-key'
p654
NsS'app-icf'
p655
NsS'blackberry-storepass'
p656
NsS'wp8-tile-fliptemplate-back-title'
p657
NsS'brew-compress-loader'
p658
NsS'win32-pref-windowposy'
p659
NsS'win32-pref-windowposx'
p660
NsS'roku-requires-audiometadata'
p661
NsS'wp8-exclude-low-mem'
p662
NsS'wp8-tile-fliptemplate-title'
p663
NsS'iphone-icon-ipad-search-high-res'
p664
NsS'iphone-link-libdir'
p665
(lp666
sS'blackberry-permissions-read-geolocation'
p667
NsS'ws81-ext-device-capabilities'
p668
(lp669
sS'tizen-signed'
p670
NsS'android-extra-application-manifest'
p671
(lp672
sS'ws8-ext-native-dll'
p673
(lp674
sS'symbian-icon2-mask'
p675
NsS'iphone-backgroundmode-audio'
p676
NsS'webos-memory'
p677
NsS'android-keypass'
p678
NsS'name'
p679
NsS'uiq3-icon2-format'
p680
NsS'roku-splash-screen-sd'
p681
NsS'auto-derbh'
p682
NsS'roku-icon-side-sd'
p683
NsS'symbian-maxheapsize'
p684
NsS'nds-publicsavedatasize'
p685
NsS'splashscreen'
p686
NsS'brew-mif'
p687
NsS'iphone-icon-settings-high-res'
p688
NsS'android-manifest'
p689
NsS'ws81-splash-screen-image620x300'
p690
NsS's3e-compression'
p691
NsS'tizen-author-password'
p692
NsS'wp8-tile-fliptemplate-back-content'
p693
NsS'symbian-icon1'
p694
NsS'symbian-icon2'
p695
NsS'android-extra-styles-file'
p696
NsS'nds-bannertitle-jp'
p697
NsS'osx-sign-for-store'
p698
NsS'symbian7-uid'
p699
NsS'wp8-tile-fliptemplate-large-back-content'
p700
NsS'nds-bannertitle-cn'
p701
NsS'iphone-distribution-key'
p702
NsS'android-icon-gallery'
p703
NsS'blackberry-keystore'
p704
NsS'iphone-nosign'
p705
NsS'caption'
p706
NsS'android-extra-manifest'
p707
(lp708
sS'android-icon-xxhdpi'
p709
NsS'version-minor'
p710
NsS'iphone-link-libdirs'
p711
(lp712
sS'iphone-icon-large'
p713
NsS'symbian-keypwd'
p714
NsS'symbian8-uid'
p715
NsS'symbian-cert-key'
p716
NsS'winmobile-ampd-part-number'
p717
NsS'arch'
p718
NsS'nds-romheadertemplate'
p719
NsS'webos-icon'
p720
NsS'psp-dlgprotectdocument'
p721
NsS'ws8-splash-screen-background'
p722
NsS'android-icon-mdpi'
p723
NsS'nds-icon'
p724
NsS'ws8-custom-manifest-fill'
p725
NsS'iphone-development-cert'
p726
NsS'blackberry-phone-icon'
p727
NsS'iphone-enable-4inch-retina'
p728
NsS'ws8-custom-manifest'
p729
NsS'version-major'
p730
NsS'wp8-genre-isgame'
p731
NsS'uiq3-uid'
p732
NsS'iphone-splash-retina-generate'
p733
NsS'tizen-hw-acceleration'
p734
NsS'iphone_bundle_localisations'
p735
NsS'tizen-dist1-key'
p736
NsS'wp8-custom-manifest'
p737
NsS'nds-bannertitle-ge'
p738
NsS'iphone-sign-for-distribution'
p739
NsS'wp8-tile-fliptemplate-medium-back-image'
p740
NsS'wp8-publisher-id'
p741
NsS'icon'
p742
NsS'wp8-exclude-wxga'
p743
NsS'uiq3-icon2-mask'
p744
NsS'iphone-splashscreen-portrait'
p745
NsS'iphone-icon-high-res'
p746
NsS'ws81-distribution-pfx-password'
p747
NsS'playbook-author'
p748
NsS'android-icon-xhdpi'
p749
NsS'linux-ext-lib'
p750
(lp751
sS'blackberry-permissions-access-internet'
p752
NsS'wp8-exclude-720p'
p753
NsS'lgtv-use-drm'
p754
NsS'symbian-platsecflags'
p755
NsS'ws8-description'
p756
NsS'blackberry-playbook-icon'
p757
NsS'copyright'
p758
NsS'win32-gles-directory'
p759
NsS'version'
p760
NsS'ws81-logo-image150x150'
p761
NsS'tizen-project-url'
p762
NsS'symbian-icon-svg'
p763
NsS'android-aliasname'
p764
NsS'psp-dlgmanual'
p765
NsS'brew-uid'
p766
NsS'symbian-locationsupport'
p767
NsS'ws8-ext-managed-dll'
p768
(lp769
sS'ws81-ext-sdk-ref-file'
p770
(lp771
sS'nds-bannertitle-it'
p772
NsS'ws8-ext-sdk-manifest-part'
p773
(lp774
sS'uiq3-icon1-mask'
p775
NsS'winmobile-icon16'
p776
NsS'ws8-product-name'
p777
NsS'blackberry-cskpass'
p778
NsS'winmobile-start-menu-folder'
p779
NsS'brew-clsid'
p780
NsS'roku-requires-bluetooth'
p781
NsS'ws8-ext-device-capabilities'
p782
(lp783
sS'blackberry-permissions-use-camera'
p784
NsS'iphone-prerendered-icon'
p785
NsS'iphone-appid'
p786
NsS'ws8-identity-name'
p787
NsS'tizen-dist2-CA-path'
p788
NsS'winmobile-icon64'
p789
NsS'blackberry-permissions-post-notification'
p790
NsS'winmobile-setup-dll'
p791
NsS'android-external-jars'
p792
(lp793
sS'symbian9-uid'
p794
NsS'iphone-icon-ipad-ios7'
p795
NsS'winmobile-trace-file'
p796
NsS'roku-splash-color'
p797
NsS'psp-appversion'
p798
NsS'ws8-publisher-id'
p799
NsS'android-supports-gl-texture'
p800
(lp801
sS'winmobile-png45'
p802
NsS'android-storepass'
p803
NsS'osx-signing-identity-app'
p804
NsS'android-custom-activity'
p805
NsS'psp-discversion'
p806
NsS'psp-copyright'
p807
NsS'embed-icf'
p808
NsS'tizen-manifest'
p809
NsS'osx-icon'
p810
NsS'webos-appinfo'
p811
NsS'psp-dlghealthwarning'
p812
NsS'webos-appid'
p813
NsS'roku-icon-side-hd'
p814
NsS'iphone-icon-ipad-search-high-res-ios7'
p815
NsS'ws81-ext-sdk-manifest-part'
p816
(lp817
sS'loader_name_prefix'
p818
NsS'nds-titlename'
p819
NsS'ws81-logo-image50x50'
p820
NsS'osx-entitlements-plist'
p821
NsS'psp-dlgicon0'
p822
NsS'winmobile-nouninstall'
p823
NsS'psp-discid'
p824
NsS'tizen-dist2-password'
p825
NsS'ws8-ext-sdk-ref'
p826
(lp827
sS'iphone-extra-string'
p828
(lp829
sS'version-string'
p830
NsS'iphone-icon-high-res-ios7'
p831
NsS'blackberry-permissions-record-audio'
p832
NsS'ws8-certificate-end-date'
p833
NsS'tizen-so'
p834
(lp835
sS'wp8-tile-fliptemplate-small-image'
p836
NsS'pkguid-as-uid'
p837
NsS'iphone-signing-identity'
p838
NsS'roku-persist-quota'
p839
NsS'nds-bannertitle-fr'
p840
NsS'ws8-distribution-pfx'
p841
NsS'ws8-publisher-display-name'
p842
NsS'brew-icon-small'
p843
NsS'psp-dlgpic2'
p844
NsS'psp-dlgpic0'
p845
NsS'psp-pic0'
p846
NsS'psp-pic1'
p847
NsS'psp-icon0'
p848
NsS'psp-icon1'
p849
NsS'ws81-identity-name'
p850
NsS'winmobile-icon'
p851
NsS'iphone-no-splash'
p852
NsS'iphone-splash'
p853
NsS'iphone-app-fonts'
p854
NsS'wp8-ext-native-dll'
p855
(lp856
sS'ws81-distribution-cer'
p857
NsS'uiq3-icon2'
p858
NsS'uiq3-icon3'
p859
NsS'uiq3-icon1'
p860
NsS'uiq3-icon1-format'
p861
NsS'ws8-logo-image50x50'
p862
NsS'symbian-icon2-mask-black'
p863
NsS'symbian-run-on-install'
p864
NsS'ws81-publisher-display-name'
p865
NsS'ws81-custom-manifest-fill'
p866
NsS'symbian-soundrecordsupport'
p867
NsS'nds-bannertitle-sp'
p868
NsS'psp-producer'
p869
NsS'iphone-apple-wwdr-cert'
p870
NsS'android-icon-nonstandard'
p871
NsS'win32-pref-processtitle'
p872
NsS'nds-bannertitle-hn'
p873
NsS'tizen-dist2-key'
p874
NsS'brew-depends'
p875
NsS'ws81-custom-manifest'
p876
NsS'iphone-icon-ipad-search-ios7'
p877
NsS'brew-icon-medium'
p878
NsS'iphone-bundle-url-name'
p879
NsS'wp8-tile-fliptemplate-large-front-image'
p880
NsS'tizen-dist2-CA-root-path'
p881
NsS'ws81-description'
p882
NsS'uiq3-icon3-format'
p883
NsS'ws81-logo-image30x30'
p884
NsS'iphone-signing-host'
p885
NsS'tizen-icon'
p886
NsS'osx-info-plist'
p887
NsS'symbian-icon1-format'
p888
NsS'ws81-distribution-pfx'
p889
NsS'blackberry-authorid'
p890
NsS'ws81-publisher-id'
p891
NsS'ws81-ext-sdk-ref'
p892
(lp893
sS'wp8-description'
p894
NsS'iphone-link-opts'
p895
(lp896
sS'roku-splash-min-time'
p897
NsS'wp8-tile-fliptemplate-medium-front-image'
p898
NsS'provider'
p899
NsS'playbook-keystore'
p900
NsS'tizen-appid'
p901
NsS'tizen-author-key'
p902
NsS'symbian-osexecsupport'
p903
NsS'android-install-location'
p904
NsS'nds-privatesavedatasize'
p905
NsS'playbook-storepass'
p906
NsS'android-icon-ldpi'
p907
NsS'manufacturer'
p908
NsS'itunes-artwork'
p909
NsS'iphone-extra-sections'
p910
NsS'ws81-product-name'
p911
NsS'ws81-ext-native-dll'
p912
(lp913
sS'iphone-info-plist'
p914
NsS'ws8-distribution-pfx-password'
p915
NsS'ws8-logo-image30x30'
p916
NsS'wp8-ext-managed-dll'
p917
(lp918
sS'iphone-splashscreen-landscape'
p919
NsS'nds-makercode'
p920
NsS'priv-sign-key'
p921
NsS'networking'
p922
NsS'android-icon'
p923
NsS'iphone-icon-settings'
p924
NsS'iphone-distribution-cert'
p925
NsS'android_extra_strings'
p926
NsS'nds-bannertitle-en'
p927
NsS'playbook-cskpass'
p928
NsS'android-so'
p929
(lp930
sS'wp8-higher-mem'
p931
NsS'roku-splash-screen-hd'
p932
NsS'iphone-bundle-url-schemes'
p933
NsS'roku-screensaver-private'
p934
NsS'osx-extra-res'
p935
(lp936
sS'playbook-icon'
p937
NsS'uid'
p938
NsS'playbook-authorid'
p939
NsS'win32-pref-windowtitle'
p940
NsS'tizen-dist1-password'
p941
NsS'roku-screensaver-title'
p942
NsS'osx-minimum-osx-version'
p943
NsS'symbian-cert'
p944
NsS'iphone-icon'
p945
NsS'win32-ext-dll'
p946
(lp947
S'c:/marmalade/7.3/extensions/pvrtextool/lib/win32/PVRTexTool.dll'
p948
asS'ws8-distribution-cer'
p949
NsS'playbook-access-shared'
p950
NsS'iphone-icon-ipad-high-res-ios7'
p951
NsS'iphone-link-libs'
p952
(lp953
sS'wp8-exclude-wvga'
p954
NsS'assets'
p955
NsS'wp8-tile-fliptemplate-large-back-image'
p956
NsS'wp8-custom-manifest-fill'
p957
NsS'pub-sign-key'
p958
NsS'android-extra-strings'
p959
NsS'tizen-author-CA-path'
p960
Nssg329
g561
sbssS'platform'
p961
S'S3E'
p962
sg64
S'1.0'
p963
sS'arcade_platform'
p964
g4
sS'extensions'
p965
(dp966
sS'source_groups_tree'
p967
(dp968
S'build_ballgame_vc12x'
p969
(dp970
S'c:/Matz_Stuff/src/BallGame/build_ballgame_vc12x/Ball.h'
p971
(lp972
I1
a(dp973
asS'c:/Matz_Stuff/src/BallGame/build_ballgame_vc12x/Ball.cpp'
p974
(lp975
I1
ag973
assS'(libjpeg)'
p976
(dp977
S'h'
p978
(dp979
S'c:/marmalade/7.3/modules/third_party/libjpeg/h/jpeglib.h'
p980
(lp981
I1
a(dp982
asS'c:/marmalade/7.3/modules/third_party/libjpeg/h/jmemsys.h'
p983
(lp984
I1
ag982
asS'c:/marmalade/7.3/modules/third_party/libjpeg/h/jerror.h'
p985
(lp986
I1
ag982
asS'c:/marmalade/7.3/modules/third_party/libjpeg/h/cdjpeg.h'
p987
(lp988
I1
ag982
asS'c:/marmalade/7.3/modules/third_party/libjpeg/h/transupp.h'
p989
(lp990
I1
ag982
asS'c:/marmalade/7.3/modules/third_party/libjpeg/h/jconfig.h'
p991
(lp992
I1
ag982
asS'c:/marmalade/7.3/modules/third_party/libjpeg/h/jdhuff.h'
p993
(lp994
I1
ag982
asS'c:/marmalade/7.3/modules/third_party/libjpeg/h/jdct.h'
p995
(lp996
I1
ag982
asS'c:/marmalade/7.3/modules/third_party/libjpeg/h/cderror.h'
p997
(lp998
I1
ag982
asS'c:/marmalade/7.3/modules/third_party/libjpeg/h/jmorecfg.h'
p999
(lp1000
I1
ag982
asS'c:/marmalade/7.3/modules/third_party/libjpeg/h/jinclude.h'
p1001
(lp1002
I1
ag982
asS'c:/marmalade/7.3/modules/third_party/libjpeg/h/jchuff.h'
p1003
(lp1004
I1
ag982
asS'c:/marmalade/7.3/modules/third_party/libjpeg/h/jpegint.h'
p1005
(lp1006
I1
ag982
asS'c:/marmalade/7.3/modules/third_party/libjpeg/h/jversion.h'
p1007
(lp1008
I1
ag982
assS'c:/marmalade/7.3/modules/third_party/libjpeg/libjpeg.mkf'
p1009
(lp1010
I1
a(dp1011
assS'(tiniconv)'
p1012
(dp1013
S'c:/marmalade/7.3/modules/third_party/tiniconv/tiniconv.mkf'
p1014
(lp1015
I1
a(dp1016
asS'c:/marmalade/7.3/modules/third_party/tiniconv/source/tiniconv_int.h'
p1017
(lp1018
I1
a(dp1019
asS'c:/marmalade/7.3/modules/third_party/tiniconv/source/tiniconv.h'
p1020
(lp1021
I1
ag1019
assS'(libpng)'
p1022
(dp1023
g978
(dp1024
S'c:/marmalade/7.3/modules/third_party/libpng/h/pngconf.h'
p1025
(lp1026
I1
a(dp1027
asS'c:/marmalade/7.3/modules/third_party/libpng/h/png.h'
p1028
(lp1029
I1
ag1027
assS'c:/marmalade/7.3/modules/third_party/libpng/libpng.mkf'
p1030
(lp1031
I1
a(dp1032
assS'Extensions'
p1033
(dp1034
S'PVRTexTool'
p1035
(dp1036
S'c:/marmalade/7.3/extensions/pvrtextool/h/PVRTexTool.h'
p1037
(lp1038
I1
a(dp1039
asS'interface'
p1040
(dp1041
S'c:/marmalade/7.3/extensions/pvrtextool/interface/PVRTexTool_interface.cpp'
p1042
(lp1043
I1
ag1039
asS'c:/marmalade/7.3/extensions/pvrtextool/interface/PVRTexTool.defines.txt'
p1044
(lp1045
I1
ag1039
assS'c:/marmalade/7.3/extensions/pvrtextool/pvrtextool.mkf'
p1046
(lp1047
I1
a(dp1048
asssS"'Marmalade Studio'"
p1049
(dp1050
S'iw2dscenegraph'
p1051
(dp1052
S'c:/marmalade/7.3/modules/iw2dscenegraph/iw2dscenegraph.mkf'
p1053
(lp1054
I1
a(dp1055
asS'c:/marmalade/7.3/modules/iw2dscenegraph/docs/iw2dscenegraph.defines.txt'
p1056
(lp1057
I1
a(dp1058
asS'c:/marmalade/7.3/modules/iw2dscenegraph/source/Iw2DSceneGraph.cpp'
p1059
(lp1060
I1
ag1058
asS'c:/marmalade/7.3/modules/iw2dscenegraph/h/Iw2DSceneGraph.h'
p1061
(lp1062
I1
ag1058
assS'iwgl'
p1063
(dp1064
S'c:/marmalade/7.3/modules/iwgl/h/IwGL.h'
p1065
(lp1066
I1
a(dp1067
asS'c:/marmalade/7.3/modules/iwgl/iwgl.mkf'
p1068
(lp1069
I1
a(dp1070
asS'c:/marmalade/7.3/modules/iwgl/h/IwGLExt.h'
p1071
(lp1072
I1
ag1067
asS'c:/marmalade/7.3/modules/iwgl/docs/iwgl.config.txt'
p1073
(lp1074
I1
ag1067
assS'iw2d'
p1075
(dp1076
S'c:/marmalade/7.3/modules/iw2d/iw2d.mkf'
p1077
(lp1078
I1
a(dp1079
asS'c:/marmalade/7.3/modules/iw2d/h/Iw2D.h'
p1080
(lp1081
I1
a(dp1082
asS'c:/marmalade/7.3/modules/iw2d/docs/iw2d_public.defines.txt'
p1083
(lp1084
I1
ag1082
asS'c:/marmalade/7.3/modules/iw2d/docs/iw2d.config.txt'
p1085
(lp1086
I1
ag1082
assS'iwgxfont'
p1087
(dp1088
S'c:/marmalade/7.3/modules/iwgxfont/h/IwGxFont.h'
p1089
(lp1090
I1
a(dp1091
asS'c:/marmalade/7.3/modules/iwgxfont/h/IwGxFontPreparedData.h'
p1092
(lp1093
I1
ag1091
asS'c:/marmalade/7.3/modules/iwgxfont/iwgxfont.mkf'
p1094
(lp1095
I1
a(dp1096
asS'c:/marmalade/7.3/modules/iwgxfont/docs/iwgxfont.config.txt'
p1097
(lp1098
I1
ag1091
asS'c:/marmalade/7.3/modules/iwgxfont/docs/iwgxfont_public.defines.txt'
p1099
(lp1100
I1
ag1091
asS'c:/marmalade/7.3/modules/iwgxfont/h/IwGxFontState.h'
p1101
(lp1102
I1
ag1091
asS'c:/marmalade/7.3/modules/iwgxfont/h/IwGxFontContainer.h'
p1103
(lp1104
I1
ag1091
asS'c:/marmalade/7.3/modules/iwgxfont/h/IwGxFontTypes.h'
p1105
(lp1106
I1
ag1091
asS'c:/marmalade/7.3/modules/iwgxfont/h/IwGxFontGlyph.h'
p1107
(lp1108
I1
ag1091
assS'iwgeom'
p1109
(dp1110
S'c:/marmalade/7.3/modules/iwgeom/h/IwGeomFVec4.h'
p1111
(lp1112
I1
a(dp1113
asS'c:/marmalade/7.3/modules/iwgeom/h/IwGeomSQuat.h'
p1114
(lp1115
I1
ag1113
asS'c:/marmalade/7.3/modules/iwgeom/h/IwGeomFMat.h'
p1116
(lp1117
I1
ag1113
asS'c:/marmalade/7.3/modules/iwgeom/h/IwGeomMenu.h'
p1118
(lp1119
I1
ag1113
asS'c:/marmalade/7.3/modules/iwgeom/h/IwGeomMat2D.h'
p1120
(lp1121
I1
ag1113
asS'c:/marmalade/7.3/modules/iwgeom/h/IwGeomVec4.h'
p1122
(lp1123
I1
ag1113
asS'c:/marmalade/7.3/modules/iwgeom/h/IwGeomFSphere.h'
p1124
(lp1125
I1
ag1113
asS'c:/marmalade/7.3/modules/iwgeom/h/IwGeomFVec3.h'
p1126
(lp1127
I1
ag1113
asS'c:/marmalade/7.3/modules/iwgeom/h/IwGeomVec3.h'
p1128
(lp1129
I1
ag1113
asS'c:/marmalade/7.3/modules/iwgeom/h/IwGeomPlane.h'
p1130
(lp1131
I1
ag1113
asS'c:/marmalade/7.3/modules/iwgeom/h/IwGeomCore.h'
p1132
(lp1133
I1
ag1113
asS'c:/marmalade/7.3/modules/iwgeom/h/IwGeomFVec2.h'
p1134
(lp1135
I1
ag1113
asS'c:/marmalade/7.3/modules/iwgeom/h/IwGeomSphere.h'
p1136
(lp1137
I1
ag1113
asS'c:/marmalade/7.3/modules/iwgeom/h/IwGeomLegacy.h'
p1138
(lp1139
I1
ag1113
asS'c:/marmalade/7.3/modules/iwgeom/h/IwGeomVec2.h'
p1140
(lp1141
I1
ag1113
asS'c:/marmalade/7.3/modules/iwgeom/h/IwGeomMat2D.h.tpl'
p1142
(lp1143
I1
ag1113
asS'c:/marmalade/7.3/modules/iwgeom/h/IwGeomFMat2D.h'
p1144
(lp1145
I1
ag1113
asS'c:/marmalade/7.3/modules/iwgeom/h/IwGeomVec.h'
p1146
(lp1147
I1
ag1113
asS'c:/marmalade/7.3/modules/iwgeom/h/IwGeomFBBox.h'
p1148
(lp1149
I1
ag1113
asS'c:/marmalade/7.3/modules/iwgeom/h/IwGeomMat.h.tpl'
p1150
(lp1151
I1
ag1113
asS'c:/marmalade/7.3/modules/iwgeom/docs/iwgeom.config.txt'
p1152
(lp1153
I1
ag1113
asS'c:/marmalade/7.3/modules/iwgeom/iwgeom.mkf'
p1154
(lp1155
I1
a(dp1156
asS'c:/marmalade/7.3/modules/iwgeom/h/IwGeomFQuat.h'
p1157
(lp1158
I1
ag1113
asS'c:/marmalade/7.3/modules/iwgeom/h/IwGeom.h'
p1159
(lp1160
I1
ag1113
asS'c:/marmalade/7.3/modules/iwgeom/h/IwGeomSVec3.h'
p1161
(lp1162
I1
ag1113
asS'c:/marmalade/7.3/modules/iwgeom/h/IwGeomMat.h'
p1163
(lp1164
I1
ag1113
asS'c:/marmalade/7.3/modules/iwgeom/h/IwGeomSVec4.h'
p1165
(lp1166
I1
ag1113
asS'c:/marmalade/7.3/modules/iwgeom/h/IwGeomSqrt.h'
p1167
(lp1168
I1
ag1113
asS'c:/marmalade/7.3/modules/iwgeom/h/IwGeomQuat.h'
p1169
(lp1170
I1
ag1113
asS'c:/marmalade/7.3/modules/iwgeom/h/IwGeomIntersect.h'
p1171
(lp1172
I1
ag1113
asS'c:/marmalade/7.3/modules/iwgeom/h/IwGeomFIntersect.h'
p1173
(lp1174
I1
ag1113
asS'c:/marmalade/7.3/modules/iwgeom/h/IwGeomFPlane.h'
p1175
(lp1176
I1
ag1113
asS'c:/marmalade/7.3/modules/iwgeom/h/IwGeomQuat.h.tpl'
p1177
(lp1178
I1
ag1113
asS'c:/marmalade/7.3/modules/iwgeom/h/IwGeomBBox.h'
p1179
(lp1180
I1
ag1113
asS'c:/marmalade/7.3/modules/iwgeom/h/IwGeomSVec2.h'
p1181
(lp1182
I1
ag1113
asS'c:/marmalade/7.3/modules/iwgeom/h/IwGeomVec.h.tpl'
p1183
(lp1184
I1
ag1113
assS'iwresmanager'
p1185
(dp1186
S'c:/marmalade/7.3/modules/iwresmanager/h/IwResHandler.h'
p1187
(lp1188
I1
a(dp1189
asS'c:/marmalade/7.3/modules/iwresmanager/h/IwResHandlerImage.h'
p1190
(lp1191
I1
ag1189
asS'c:/marmalade/7.3/modules/iwresmanager/docs/iwresmanager.config.txt'
p1192
(lp1193
I1
ag1189
asS'c:/marmalade/7.3/modules/iwresmanager/h/IwResManager.h'
p1194
(lp1195
I1
ag1189
asS'c:/marmalade/7.3/modules/iwresmanager/h/IwResSerialise.h'
p1196
(lp1197
I1
ag1189
asS'c:/marmalade/7.3/modules/iwresmanager/iwresmanager.mkf'
p1198
(lp1199
I1
a(dp1200
asS'c:/marmalade/7.3/modules/iwresmanager/h/IwResGroup.h'
p1201
(lp1202
I1
ag1189
asS'c:/marmalade/7.3/modules/iwresmanager/h/IwResHandlerITX.h'
p1203
(lp1204
I1
ag1189
asS'c:/marmalade/7.3/modules/iwresmanager/h/IwResHandlerGROUP.h'
p1205
(lp1206
I1
ag1189
asS'c:/marmalade/7.3/modules/iwresmanager/h/IwResManagerClass.h'
p1207
(lp1208
I1
ag1189
assS'iwgx'
p1209
(dp1210
S'c:/marmalade/7.3/modules/iwgx/h/IwResHandlerMTL.h'
p1211
(lp1212
I1
a(dp1213
asS'c:/marmalade/7.3/modules/iwgx/h/IwGxTypes.h'
p1214
(lp1215
I1
ag1213
asS'c:/marmalade/7.3/modules/iwgx/h/IwMaterial.h'
p1216
(lp1217
I1
ag1213
asS'c:/marmalade/7.3/modules/iwgx/h/IwDebugPrim.h'
p1218
(lp1219
I1
ag1213
asS'c:/marmalade/7.3/modules/iwgx/h/IwGxFuncTable.h'
p1220
(lp1221
I1
ag1213
asS'c:/marmalade/7.3/modules/iwgx/h/IwGxMetrics.h'
p1222
(lp1223
I1
ag1213
asS'c:/marmalade/7.3/modules/iwgx/h/IwMatAnim.h'
p1224
(lp1225
I1
ag1213
asS'c:/marmalade/7.3/modules/iwgx/h/IwGxShaderTechnique.h'
p1226
(lp1227
I1
ag1213
asS'c:/marmalade/7.3/modules/iwgx/h/IwGxState.h'
p1228
(lp1229
I1
ag1213
asS'c:/marmalade/7.3/modules/iwgx/h/IwClip.h'
p1230
(lp1231
I1
ag1213
asS'c:/marmalade/7.3/modules/iwgx/h/IwTPage.h'
p1232
(lp1233
I1
ag1213
asS'c:/marmalade/7.3/modules/iwgx/docs/iwgx.config.txt'
p1234
(lp1235
I1
ag1213
asS'c:/marmalade/7.3/modules/iwgx/h/IwColour.h'
p1236
(lp1237
I1
ag1213
asS'c:/marmalade/7.3/modules/iwgx/h/IwGx.h'
p1238
(lp1239
I1
ag1213
asS'c:/marmalade/7.3/modules/iwgx/docs/iwgx_public.defines.txt'
p1240
(lp1241
I1
ag1213
asS'c:/marmalade/7.3/modules/iwgx/h/IwFColour.h'
p1242
(lp1243
I1
ag1213
asS'c:/marmalade/7.3/modules/iwgx/h/IwGxStream.h'
p1244
(lp1245
I1
ag1213
asS'c:/marmalade/7.3/modules/iwgx/h/IwClip.inl'
p1246
(lp1247
I1
ag1213
asS'c:/marmalade/7.3/modules/iwgx/iwgx.mkf'
p1248
(lp1249
I1
a(dp1250
asS'c:/marmalade/7.3/modules/iwgx/h/IwGxPrint.h'
p1251
(lp1252
I1
ag1213
asS'c:/marmalade/7.3/modules/iwgx/h/IwGxSurface.h'
p1253
(lp1254
I1
ag1213
asS'c:/marmalade/7.3/modules/iwgx/h/IwGxError.h'
p1255
(lp1256
I1
ag1213
asS'c:/marmalade/7.3/modules/iwgx/h/IwGxDebug.h'
p1257
(lp1258
I1
ag1213
asS'c:/marmalade/7.3/modules/iwgx/h/IwTexture.h'
p1259
(lp1260
I1
ag1213
asS'c:/marmalade/7.3/modules/iwgx/h/IwGxTransformSW.h'
p1261
(lp1262
I1
ag1213
assS'iw2dscenegraphcore'
p1263
(dp1264
S'c:/marmalade/7.3/modules/iw2dscenegraphcore/h/Iw2DSceneGraphCore.h'
p1265
(lp1266
I1
a(dp1267
asS'c:/marmalade/7.3/modules/iw2dscenegraphcore/iw2dscenegraphcore.mkf'
p1268
(lp1269
I1
a(dp1270
asS'c:/marmalade/7.3/modules/iw2dscenegraphcore/source/Iw2DSceneGraphCore.cpp'
p1271
(lp1272
I1
ag1267
assS'iwutil'
p1273
(dp1274
S'c:/marmalade/7.3/modules/iwutil/h/IwVariableBitField.h'
p1275
(lp1276
I1
a(dp1277
asS'c:/marmalade/7.3/modules/iwutil/h/IwManagedList.h'
p1278
(lp1279
I1
ag1277
asS'c:/marmalade/7.3/modules/iwutil/docs/iwutil.config.txt'
p1280
(lp1281
I1
ag1277
asS'c:/marmalade/7.3/modules/iwutil/h/IwUtilInitTerm.h'
p1282
(lp1283
I1
ag1277
asS'c:/marmalade/7.3/modules/iwutil/h/IwList.h'
p1284
(lp1285
I1
ag1277
asS'c:/marmalade/7.3/modules/iwutil/h/IwAllocator.h'
p1286
(lp1287
I1
ag1277
asS'c:/marmalade/7.3/modules/iwutil/h/IwUTF8.h'
p1288
(lp1289
I1
ag1277
asS'c:/marmalade/7.3/modules/iwutil/h/IwHashString.h'
p1290
(lp1291
I1
ag1277
asS'c:/marmalade/7.3/modules/iwutil/h/IwMath.h'
p1292
(lp1293
I1
ag1277
asS'c:/marmalade/7.3/modules/iwutil/h/IwTextParser.h'
p1294
(lp1295
I1
ag1277
asS'c:/marmalade/7.3/modules/iwutil/h/IwString.h'
p1296
(lp1297
I1
ag1277
asS'c:/marmalade/7.3/modules/iwutil/h/IwOptimiseSpeed.h'
p1298
(lp1299
I1
ag1277
asS'c:/marmalade/7.3/modules/iwutil/h/IwRuntime.h'
p1300
(lp1301
I1
ag1277
asS'c:/marmalade/7.3/modules/iwutil/h/IwOptimiseThumb.h'
p1302
(lp1303
I1
ag1277
asS'c:/marmalade/7.3/modules/iwutil/h/IwSerialise.h'
p1304
(lp1305
I1
ag1277
asS'c:/marmalade/7.3/modules/iwutil/h/IwAutoFile.h'
p1306
(lp1307
I1
ag1277
asS'c:/marmalade/7.3/modules/iwutil/h/IwOptimiseARM.h'
p1308
(lp1309
I1
ag1277
asS'c:/marmalade/7.3/modules/iwutil/h/IwPath.h'
p1310
(lp1311
I1
ag1277
asS'c:/marmalade/7.3/modules/iwutil/h/IwFile.h'
p1312
(lp1313
I1
ag1277
asS'c:/marmalade/7.3/modules/iwutil/h/IwTextParseable.h'
p1314
(lp1315
I1
ag1277
asS'c:/marmalade/7.3/modules/iwutil/h/IwMenu.h'
p1316
(lp1317
I1
ag1277
asS'c:/marmalade/7.3/modules/iwutil/h/IwImage.h'
p1318
(lp1319
I1
ag1277
asS'c:/marmalade/7.3/modules/iwutil/h/IwProfileMenu.h'
p1320
(lp1321
I1
ag1277
asS'c:/marmalade/7.3/modules/iwutil/h/IwDivTable.h'
p1322
(lp1323
I1
ag1277
asS'c:/marmalade/7.3/modules/iwutil/h/IwMemBucketHelpers.h'
p1324
(lp1325
I1
ag1277
asS'c:/marmalade/7.3/modules/iwutil/h/IwDebug.h'
p1326
(lp1327
I1
ag1277
asS'c:/marmalade/7.3/modules/iwutil/h/IwArray.h'
p1328
(lp1329
I1
ag1277
asS'c:/marmalade/7.3/modules/iwutil/iwutil.mkf'
p1330
(lp1331
I1
a(dp1332
asS'c:/marmalade/7.3/modules/iwutil/h/IwMemBucket.h'
p1333
(lp1334
I1
ag1277
asS'c:/marmalade/7.3/modules/iwutil/h/IwDivide.h'
p1335
(lp1336
I1
ag1277
asS'c:/marmalade/7.3/modules/iwutil/h/IwCopyingPtr.h'
p1337
(lp1338
I1
ag1277
asS'c:/marmalade/7.3/modules/iwutil/h/IwUtil.h'
p1339
(lp1340
I1
ag1277
asS'c:/marmalade/7.3/modules/iwutil/h/IwFibre.h'
p1341
(lp1342
I1
ag1277
asS'c:/marmalade/7.3/modules/iwutil/h/IwImageHelper.h'
p1343
(lp1344
I1
ag1277
asS'c:/marmalade/7.3/modules/iwutil/h/IwSingleton.h'
p1345
(lp1346
I1
ag1277
asS'c:/marmalade/7.3/modules/iwutil/h/IwEvent.h'
p1347
(lp1348
I1
ag1277
asS'c:/marmalade/7.3/modules/iwutil/h/IwTypes.h'
p1349
(lp1350
I1
ag1277
asS'c:/marmalade/7.3/modules/iwutil/h/IwMemManagerDL.h'
p1351
(lp1352
I1
ag1277
asS'c:/marmalade/7.3/modules/iwutil/h/IwKeymap.h'
p1353
(lp1354
I1
ag1277
asS'c:/marmalade/7.3/modules/iwutil/h/IwCore.h'
p1355
(lp1356
I1
ag1277
asS'c:/marmalade/7.3/modules/iwutil/h/IwChar.h'
p1357
(lp1358
I1
ag1277
asS'c:/marmalade/7.3/modules/iwutil/h/IwManaged.h'
p1359
(lp1360
I1
ag1277
asS'c:/marmalade/7.3/modules/iwutil/h/IwMemory.h'
p1361
(lp1362
I1
ag1277
asS'c:/marmalade/7.3/modules/iwutil/h/IwBuffer.h'
p1363
(lp1364
I1
ag1277
asS'c:/marmalade/7.3/modules/iwutil/h/IwTextParserITX.h'
p1365
(lp1366
I1
ag1277
asS'c:/marmalade/7.3/modules/iwutil/h/IwOptimiseSize.h'
p1367
(lp1368
I1
ag1277
asS'c:/marmalade/7.3/modules/iwutil/h/IwRandom.h'
p1369
(lp1370
I1
ag1277
asS'c:/marmalade/7.3/modules/iwutil/h/IwResource.h'
p1371
(lp1372
I1
ag1277
asS'c:/marmalade/7.3/modules/iwutil/h/IwUncopyable.h'
p1373
(lp1374
I1
ag1277
asS'c:/marmalade/7.3/modules/iwutil/h/IwClassFactory.h'
p1375
(lp1376
I1
ag1277
asssS'(zlib)'
p1377
(dp1378
S'c:/marmalade/7.3/modules/third_party/zlib/zlib.mkf'
p1379
(lp1380
I1
a(dp1381
asg978
(dp1382
S'c:/marmalade/7.3/modules/third_party/zlib/h/zlib.h'
p1383
(lp1384
I1
a(dp1385
asS'c:/marmalade/7.3/modules/third_party/zlib/h/zconf.h'
p1386
(lp1387
I1
ag1385
asssS'(iwtween)'
p1388
(dp1389
S'c:/marmalade/7.3/modules/iwtween/source/IwTween.cpp'
p1390
(lp1391
I1
a(dp1392
asS'c:/marmalade/7.3/modules/iwtween/h/IwTween.h'
p1393
(lp1394
I1
ag1392
asS'c:/marmalade/7.3/modules/iwtween/iwtween.mkf'
p1395
(lp1396
I1
a(dp1397
assS'c:/Matz_Stuff/src/BallGame/BallGame.cpp'
p1398
(lp1399
I1
ag973
assS'files'
p1400
(dp1401
S'IwGxFontPreparedData.h'
p1402
g303
(cmkb_main
File
p1403
g305
Ntp1404
Rp1405
(dp1406
S'flags'
p1407
g1091
sS'group'
p1408
(lp1409
S"'Marmalade Studio'"
p1410
ag1087
asg329
g1092
sbsS'iterator'
p1411
g303
(g1403
g305
Ntp1412
Rp1413
(dp1414
g1407
(dp1415
sg1408
(lp1416
S"'Marmalade System (S3E)'"
p1417
aS'stdc headers'
p1418
aS'c++'
p1419
asg329
S'c:/marmalade/7.3/s3e/h/std/c++/iterator'
p1420
sbsS'IwGL.h'
p1421
g303
(g1403
g305
Ntp1422
Rp1423
(dp1424
g1407
g1067
sg1408
(lp1425
S"'Marmalade Studio'"
p1426
ag1063
asg329
g1065
sbsS's3e.h'
p1427
g303
(g1403
g305
Ntp1428
Rp1429
(dp1430
g1407
g1415
sg1408
(lp1431
g1417
asg329
S'c:/marmalade/7.3/s3e/h/s3e.h'
p1432
sbsS'errno.h'
p1433
g303
(g1403
g305
Ntp1434
Rp1435
(dp1436
g1407
g1415
sg1408
(lp1437
g1417
aS'stdc headers'
p1438
asg329
S'c:/marmalade/7.3/s3e/h/std/errno.h'
p1439
sbsS'IwSingleton.h'
p1440
g303
(g1403
g305
Ntp1441
Rp1442
(dp1443
g1407
g1277
sg1408
(lp1444
S"'Marmalade Studio'"
p1445
ag1273
asg329
g1345
sbsS'dlfcn.h'
p1446
g303
(g1403
g305
Ntp1447
Rp1448
(dp1449
g1407
g1415
sg1408
g1437
sg329
S'c:/marmalade/7.3/s3e/h/std/dlfcn.h'
p1450
sbsS'stdio_streambuf'
p1451
g303
(g1403
g305
Ntp1452
Rp1453
(dp1454
g1407
g1415
sg1408
g1416
sg329
S'c:/marmalade/7.3/s3e/h/std/c++/stdio_streambuf'
p1455
sbsS'sched.h'
p1456
g303
(g1403
g305
Ntp1457
Rp1458
(dp1459
g1407
g1415
sg1408
g1437
sg329
S'c:/marmalade/7.3/s3e/h/std/sched.h'
p1460
sbsS'IwGeomFMat2D.h'
p1461
g303
(g1403
g305
Ntp1462
Rp1463
(dp1464
g1407
g1113
sg1408
(lp1465
S"'Marmalade Studio'"
p1466
ag1109
asg329
g1144
sbsS's3eExt.h'
p1467
g303
(g1403
g305
Ntp1468
Rp1469
(dp1470
g1407
g1415
sg1408
g1431
sg329
S'c:/marmalade/7.3/s3e/h/s3eExt.h'
p1471
sbsS'grp.h'
p1472
g303
(g1403
g305
Ntp1473
Rp1474
(dp1475
g1407
g1415
sg1408
g1437
sg329
S'c:/marmalade/7.3/s3e/h/std/grp.h'
p1476
sbsS'list'
p1477
g303
(g1403
g305
Ntp1478
Rp1479
(dp1480
g1407
g1415
sg1408
g1416
sg329
S'c:/marmalade/7.3/s3e/h/std/c++/list'
p1481
sbsS'IwGeomMat.h.tpl'
p1482
g303
(g1403
g305
Ntp1483
Rp1484
(dp1485
g1407
g1113
sg1408
g1465
sg329
g1150
sbsS'istream'
p1486
g303
(g1403
g305
Ntp1487
Rp1488
(dp1489
g1407
g1415
sg1408
g1416
sg329
S'c:/marmalade/7.3/s3e/h/std/c++/istream'
p1490
sbsS'jpeglib.h'
p1491
g303
(g1403
g305
Ntp1492
Rp1493
(dp1494
g1407
g982
sg1408
(lp1495
g976
ag978
asg329
g980
sbsS'iw2d_public.defines.txt'
p1496
g303
(g1403
g305
Ntp1497
Rp1498
(dp1499
g1407
g1082
sg1408
(lp1500
S"'Marmalade Studio'"
p1501
ag1075
asg329
g1083
sbsS'iostream.h'
p1502
g303
(g1403
g305
Ntp1503
Rp1504
(dp1505
g1407
g1415
sg1408
g1416
sg329
S'c:/marmalade/7.3/s3e/h/std/c++/iostream.h'
p1506
sbsS'string'
p1507
g303
(g1403
g305
Ntp1508
Rp1509
(dp1510
g1407
g1415
sg1408
g1416
sg329
S'c:/marmalade/7.3/s3e/h/std/c++/string'
p1511
sbsS'IwMemory.h'
p1512
g303
(g1403
g305
Ntp1513
Rp1514
(dp1515
g1407
g1277
sg1408
g1444
sg329
g1361
sbsS'IwGeomPlane.h'
p1516
g303
(g1403
g305
Ntp1517
Rp1518
(dp1519
g1407
g1113
sg1408
g1465
sg329
g1130
sbsS'iw2d.config.txt'
p1520
g303
(g1403
g305
Ntp1521
Rp1522
(dp1523
g1407
g1082
sg1408
g1500
sg329
g1085
sbsS'iomanip'
p1524
g303
(g1403
g305
Ntp1525
Rp1526
(dp1527
g1407
g1415
sg1408
g1416
sg329
S'c:/marmalade/7.3/s3e/h/std/c++/iomanip'
p1528
sbsS'iwgeom.mkf'
p1529
g303
(g1403
g305
Ntp1530
Rp1531
(dp1532
g1407
g1156
sg1408
g1465
sg329
g1154
sbsS'IwGxError.h'
p1533
g303
(g1403
g305
Ntp1534
Rp1535
(dp1536
g1407
g1213
sg1408
(lp1537
S"'Marmalade Studio'"
p1538
ag1209
asg329
g1255
sbsS'IwGeom.h'
p1539
g303
(g1403
g305
Ntp1540
Rp1541
(dp1542
g1407
g1113
sg1408
g1465
sg329
g1159
sbsS'IwGeomVec4.h'
p1543
g303
(g1403
g305
Ntp1544
Rp1545
(dp1546
g1407
g1113
sg1408
g1465
sg329
g1122
sbsS'dir.h'
p1547
g303
(g1403
g305
Ntp1548
Rp1549
(dp1550
g1407
g1415
sg1408
(lp1551
g1417
aS'stdc headers'
p1552
aS'sys'
p1553
asg329
S'c:/marmalade/7.3/s3e/h/std/sys/dir.h'
p1554
sbsS'locale.h'
p1555
g303
(g1403
g305
Ntp1556
Rp1557
(dp1558
g1407
g1415
sg1408
g1437
sg329
S'c:/marmalade/7.3/s3e/h/std/locale.h'
p1559
sbsS'vector'
p1560
g303
(g1403
g305
Ntp1561
Rp1562
(dp1563
g1407
g1415
sg1408
g1416
sg329
S'c:/marmalade/7.3/s3e/h/std/c++/vector'
p1564
sbsS'IwManaged.h'
p1565
g303
(g1403
g305
Ntp1566
Rp1567
(dp1568
g1407
g1277
sg1408
g1444
sg329
g1359
sbsS's3eCompass.h'
p1569
g303
(g1403
g305
Ntp1570
Rp1571
(dp1572
g1407
g1415
sg1408
g1431
sg329
S'c:/marmalade/7.3/s3e/h/s3eCompass.h'
p1573
sbsS'cderror.h'
p1574
g303
(g1403
g305
Ntp1575
Rp1576
(dp1577
g1407
g982
sg1408
g1495
sg329
g997
sbsS'climits'
p1578
g303
(g1403
g305
Ntp1579
Rp1580
(dp1581
g1407
g1415
sg1408
g1416
sg329
S'c:/marmalade/7.3/s3e/h/std/c++/climits'
p1582
sbsS's3eVibra.h'
p1583
g303
(g1403
g305
Ntp1584
Rp1585
(dp1586
g1407
g1415
sg1408
g1431
sg329
S'c:/marmalade/7.3/s3e/h/s3eVibra.h'
p1587
sbsS'jversion.h'
p1588
g303
(g1403
g305
Ntp1589
Rp1590
(dp1591
g1407
g982
sg1408
g1495
sg329
g1007
sbsS'fnmatch.h'
p1592
g303
(g1403
g305
Ntp1593
Rp1594
(dp1595
g1407
g1415
sg1408
g1437
sg329
S'c:/marmalade/7.3/s3e/h/std/fnmatch.h'
p1596
sbsS'IwGxState.h'
p1597
g303
(g1403
g305
Ntp1598
Rp1599
(dp1600
g1407
g1213
sg1408
g1537
sg329
g1228
sbsS's3eAudio.h'
p1601
g303
(g1403
g305
Ntp1602
Rp1603
(dp1604
g1407
g1415
sg1408
g1431
sg329
S'c:/marmalade/7.3/s3e/h/s3eAudio.h'
p1605
sbsS's3eSurface.h'
p1606
g303
(g1403
g305
Ntp1607
Rp1608
(dp1609
g1407
g1415
sg1408
g1431
sg329
S'c:/marmalade/7.3/s3e/h/s3eSurface.h'
p1610
sbsS'new'
p1611
g303
(g1403
g305
Ntp1612
Rp1613
(dp1614
g1407
g1415
sg1408
g1416
sg329
S'c:/marmalade/7.3/s3e/h/std/c++/new'
p1615
sbsS's3eWindow.h'
p1616
g303
(g1403
g305
Ntp1617
Rp1618
(dp1619
g1407
g1415
sg1408
(lp1620
g1417
aS'Extensions'
p1621
asg329
S'c:/marmalade/7.3/s3e/h/ext/s3eWindow.h'
p1622
sbsS'IwBuffer.h'
p1623
g303
(g1403
g305
Ntp1624
Rp1625
(dp1626
g1407
g1277
sg1408
g1444
sg329
g1363
sbsS'IwGeomQuat.h.tpl'
p1627
g303
(g1403
g305
Ntp1628
Rp1629
(dp1630
g1407
g1113
sg1408
g1465
sg329
g1177
sbsS's3eOSExec.h'
p1631
g303
(g1403
g305
Ntp1632
Rp1633
(dp1634
g1407
g1415
sg1408
g1620
sg329
S'c:/marmalade/7.3/s3e/h/ext/s3eOSExec.h'
p1635
sbsS'IwGxTransformSW.h'
p1636
g303
(g1403
g305
Ntp1637
Rp1638
(dp1639
g1407
g1213
sg1408
g1537
sg329
g1261
sbsS'IwGxMetrics.h'
p1640
g303
(g1403
g305
Ntp1641
Rp1642
(dp1643
g1407
g1213
sg1408
g1537
sg329
g1222
sbsS'iwgxfont.config.txt'
p1644
g303
(g1403
g305
Ntp1645
Rp1646
(dp1647
g1407
g1091
sg1408
g1409
sg329
g1097
sbsS'gl2platform.h'
p1648
g303
(g1403
g305
Ntp1649
Rp1650
(dp1651
g1407
g1415
sg1408
(lp1652
g1417
aS'GL'
p1653
aS'GLES 2.0'
p1654
asg329
S'c:/marmalade/7.3/s3e/h/GLES2/gl2platform.h'
p1655
sbsS'iw2dscenegraph.defines.txt'
p1656
g303
(g1403
g305
Ntp1657
Rp1658
(dp1659
g1407
g1058
sg1408
(lp1660
S"'Marmalade Studio'"
p1661
ag1051
asg329
g1056
sbsS'queue'
p1662
g303
(g1403
g305
Ntp1663
Rp1664
(dp1665
g1407
g1415
sg1408
g1416
sg329
S'c:/marmalade/7.3/s3e/h/std/c++/queue'
p1666
sbsS'time_1.h'
p1667
g303
(g1403
g305
Ntp1668
Rp1669
(dp1670
g1407
g1415
sg1408
g1551
sg329
S'c:/marmalade/7.3/s3e/h/std/sys/time.h'
p1671
sbsS'Iw2D.h'
p1672
g303
(g1403
g305
Ntp1673
Rp1674
(dp1675
g1407
g1082
sg1408
g1500
sg329
g1080
sbsS'IwGeomVec2.h'
p1676
g303
(g1403
g305
Ntp1677
Rp1678
(dp1679
g1407
g1113
sg1408
g1465
sg329
g1140
sbsS's3eDevice.h'
p1680
g303
(g1403
g305
Ntp1681
Rp1682
(dp1683
g1407
g1415
sg1408
g1431
sg329
S'c:/marmalade/7.3/s3e/h/s3eDevice.h'
p1684
sbsS'malloc.h'
p1685
g303
(g1403
g305
Ntp1686
Rp1687
(dp1688
g1407
g1415
sg1408
g1437
sg329
S'c:/marmalade/7.3/s3e/h/std/malloc.h'
p1689
sbsS'stdarg.h'
p1690
g303
(g1403
g305
Ntp1691
Rp1692
(dp1693
g1407
g1415
sg1408
g1437
sg329
S'c:/marmalade/7.3/s3e/h/std/stdarg.h'
p1694
sbsS'IwGeomCore.h'
p1695
g303
(g1403
g305
Ntp1696
Rp1697
(dp1698
g1407
g1113
sg1408
g1465
sg329
g1132
sbsS'Iw2DSceneGraph.h'
p1699
g303
(g1403
g305
Ntp1700
Rp1701
(dp1702
g1407
g1058
sg1408
g1660
sg329
g1061
sbsS'endian.h'
p1703
g303
(g1403
g305
Ntp1704
Rp1705
(dp1706
g1407
g1415
sg1408
g1437
sg329
S'c:/marmalade/7.3/s3e/h/std/endian.h'
p1707
sbsS'gl3ext.h'
p1708
g303
(g1403
g305
Ntp1709
Rp1710
(dp1711
g1407
g1415
sg1408
(lp1712
g1417
aS'GL'
p1713
aS'GLES 3.0'
p1714
asg329
S'c:/marmalade/7.3/s3e/h/GLES3/gl3ext.h'
p1715
sbsS'glob.h'
p1716
g303
(g1403
g305
Ntp1717
Rp1718
(dp1719
g1407
g1415
sg1408
g1437
sg329
S'c:/marmalade/7.3/s3e/h/std/glob.h'
p1720
sbsS'fstream'
p1721
g303
(g1403
g305
Ntp1722
Rp1723
(dp1724
g1407
g1415
sg1408
g1416
sg329
S'c:/marmalade/7.3/s3e/h/std/c++/fstream'
p1725
sbsS's3eCamera.h'
p1726
g303
(g1403
g305
Ntp1727
Rp1728
(dp1729
g1407
g1415
sg1408
g1431
sg329
S'c:/marmalade/7.3/s3e/h/s3eCamera.h'
p1730
sbsS'jconfig.h'
p1731
g303
(g1403
g305
Ntp1732
Rp1733
(dp1734
g1407
g982
sg1408
g1495
sg329
g991
sbsS'memory'
p1735
g303
(g1403
g305
Ntp1736
Rp1737
(dp1738
g1407
g1415
sg1408
g1416
sg329
S'c:/marmalade/7.3/s3e/h/std/c++/memory'
p1739
sbsS'egl.h'
p1740
g303
(g1403
g305
Ntp1741
Rp1742
(dp1743
g1407
g1415
sg1408
(lp1744
g1417
aS'GL'
p1745
aS'EGL'
p1746
asg329
S'c:/marmalade/7.3/s3e/h/EGL/egl.h'
p1747
sbsS'IwClip.inl'
p1748
g303
(g1403
g305
Ntp1749
Rp1750
(dp1751
g1407
g1213
sg1408
g1537
sg329
g1246
sbsS'IwMemManagerDL.h'
p1752
g303
(g1403
g305
Ntp1753
Rp1754
(dp1755
g1407
g1277
sg1408
g1444
sg329
g1351
sbsS'deque'
p1756
g303
(g1403
g305
Ntp1757
Rp1758
(dp1759
g1407
g1415
sg1408
g1416
sg329
S'c:/marmalade/7.3/s3e/h/std/c++/deque'
p1760
sbsS'IwString.h'
p1761
g303
(g1403
g305
Ntp1762
Rp1763
(dp1764
g1407
g1277
sg1408
g1444
sg329
g1296
sbsS'cwchar'
p1765
g303
(g1403
g305
Ntp1766
Rp1767
(dp1768
g1407
g1415
sg1408
g1416
sg329
S'c:/marmalade/7.3/s3e/h/std/c++/cwchar'
p1769
sbsS'iwutil.mkf'
p1770
g303
(g1403
g305
Ntp1771
Rp1772
(dp1773
g1407
g1332
sg1408
g1444
sg329
g1330
sbsS'csignal'
p1774
g303
(g1403
g305
Ntp1775
Rp1776
(dp1777
g1407
g1415
sg1408
g1416
sg329
S'c:/marmalade/7.3/s3e/h/std/c++/csignal'
p1778
sbsS'float.h'
p1779
g303
(g1403
g305
Ntp1780
Rp1781
(dp1782
g1407
g1415
sg1408
g1437
sg329
S'c:/marmalade/7.3/s3e/h/std/float.h'
p1783
sbsS'pthread_alloc'
p1784
g303
(g1403
g305
Ntp1785
Rp1786
(dp1787
g1407
g1415
sg1408
g1416
sg329
S'c:/marmalade/7.3/s3e/h/std/c++/pthread_alloc'
p1788
sbsS'getopt.h'
p1789
g303
(g1403
g305
Ntp1790
Rp1791
(dp1792
g1407
g1415
sg1408
g1437
sg329
S'c:/marmalade/7.3/s3e/h/std/getopt.h'
p1793
sbsS'IwOptimiseARM.h'
p1794
g303
(g1403
g305
Ntp1795
Rp1796
(dp1797
g1407
g1277
sg1408
g1444
sg329
g1308
sbsS'times.h'
p1798
g303
(g1403
g305
Ntp1799
Rp1800
(dp1801
g1407
g1415
sg1408
g1551
sg329
S'c:/marmalade/7.3/s3e/h/std/sys/times.h'
p1802
sbsS'IwGeomFSphere.h'
p1803
g303
(g1403
g305
Ntp1804
Rp1805
(dp1806
g1407
g1113
sg1408
g1465
sg329
g1124
sbsS'IwTypes.h'
p1807
g303
(g1403
g305
Ntp1808
Rp1809
(dp1810
g1407
g1277
sg1408
g1444
sg329
g1349
sbsS'unistd.h'
p1811
g303
(g1403
g305
Ntp1812
Rp1813
(dp1814
g1407
g1415
sg1408
g1437
sg329
S'c:/marmalade/7.3/s3e/h/std/unistd.h'
p1815
sbsS's3eCompression.h'
p1816
g303
(g1403
g305
Ntp1817
Rp1818
(dp1819
g1407
g1415
sg1408
g1431
sg329
S'c:/marmalade/7.3/s3e/h/s3eCompression.h'
p1820
sbsS'langinfo.h'
p1821
g303
(g1403
g305
Ntp1822
Rp1823
(dp1824
g1407
g1415
sg1408
g1437
sg329
S'c:/marmalade/7.3/s3e/h/std/langinfo.h'
p1825
sbsS's3edebugHeap.h'
p1826
g303
(g1403
g305
Ntp1827
Rp1828
(dp1829
g1407
g1415
sg1408
g1620
sg329
S'c:/marmalade/7.3/s3e/h/ext/s3edebugHeap.h'
p1830
sbsS'AirplayVersion.h'
p1831
g303
(g1403
g305
Ntp1832
Rp1833
(dp1834
g1407
g1415
sg1408
g1431
sg329
S'c:/marmalade/7.3/s3e/h/AirplayVersion.h'
p1835
sbsS'gl2extimg.h'
p1836
g303
(g1403
g305
Ntp1837
Rp1838
(dp1839
g1407
g1415
sg1408
g1652
sg329
S'c:/marmalade/7.3/s3e/h/GLES2/gl2extimg.h'
p1840
sbsS'app.config.txt'
p1841
g303
(g1403
g305
Ntp1842
Rp1843
(dp1844
g1407
(dp1845
sg1408
g4
sg329
S'c:/Matz_Stuff/src/BallGame/data/app.config.txt'
p1846
sbsS'IwGeomSqrt.h'
p1847
g303
(g1403
g305
Ntp1848
Rp1849
(dp1850
g1407
g1113
sg1408
g1465
sg329
g1167
sbsS'tiniconv_int.h'
p1851
g303
(g1403
g305
Ntp1852
Rp1853
(dp1854
g1407
g1019
sg1408
(lp1855
g1012
asg329
g1017
sbsS'syslog.h'
p1856
g303
(g1403
g305
Ntp1857
Rp1858
(dp1859
g1407
g1415
sg1408
g1437
sg329
S'c:/marmalade/7.3/s3e/h/std/syslog.h'
p1860
sbsS'IwGxFontTypes.h'
p1861
g303
(g1403
g305
Ntp1862
Rp1863
(dp1864
g1407
g1091
sg1408
g1409
sg329
g1105
sbsS'IwGeomFIntersect.h'
p1865
g303
(g1403
g305
Ntp1866
Rp1867
(dp1868
g1407
g1113
sg1408
g1465
sg329
g1173
sbsS'hash_map'
p1869
g303
(g1403
g305
Ntp1870
Rp1871
(dp1872
g1407
g1415
sg1408
g1416
sg329
S'c:/marmalade/7.3/s3e/h/std/c++/hash_map'
p1873
sbsS's3e.mkf'
p1874
g303
(g1403
g305
Ntp1875
Rp1876
(dp1877
g1407
(dp1878
sg1408
g1431
sg329
S'c:/marmalade/7.3/s3e/s3e.mkf'
p1879
sbsS'IwGeomMat2D.h.tpl'
p1880
g303
(g1403
g305
Ntp1881
Rp1882
(dp1883
g1407
g1113
sg1408
g1465
sg329
g1142
sbsS's3eOSReadString.h'
p1884
g303
(g1403
g305
Ntp1885
Rp1886
(dp1887
g1407
g1415
sg1408
g1620
sg329
S'c:/marmalade/7.3/s3e/h/ext/s3eOSReadString.h'
p1888
sbsS'map'
p1889
g303
(g1403
g305
Ntp1890
Rp1891
(dp1892
g1407
g1415
sg1408
g1416
sg329
S'c:/marmalade/7.3/s3e/h/std/c++/map'
p1893
sbsS'iwtween.mkf'
p1894
g303
(g1403
g305
Ntp1895
Rp1896
(dp1897
g1407
g1397
sg1408
(lp1898
g1388
asg329
g1395
sbsS'IwOptimiseSpeed.h'
p1899
g303
(g1403
g305
Ntp1900
Rp1901
(dp1902
g1407
g1277
sg1408
g1444
sg329
g1298
sbsS'msl_string.h'
p1903
g303
(g1403
g305
Ntp1904
Rp1905
(dp1906
g1407
g1415
sg1408
g1416
sg329
S'c:/marmalade/7.3/s3e/h/std/c++/msl_string.h'
p1907
sbsS'select.h'
p1908
g303
(g1403
g305
Ntp1909
Rp1910
(dp1911
g1407
g1415
sg1408
g1551
sg329
S'c:/marmalade/7.3/s3e/h/std/sys/select.h'
p1912
sbsS'zlib.mkf'
p1913
g303
(g1403
g305
Ntp1914
Rp1915
(dp1916
g1407
g1381
sg1408
(lp1917
g1377
asg329
g1379
sbsS'signal.h'
p1918
g303
(g1403
g305
Ntp1919
Rp1920
(dp1921
g1407
g1415
sg1408
g1437
sg329
S'c:/marmalade/7.3/s3e/h/std/signal.h'
p1922
sbsS'sigcontext.h'
p1923
g303
(g1403
g305
Ntp1924
Rp1925
(dp1926
g1407
g1415
sg1408
g1437
sg329
S'c:/marmalade/7.3/s3e/h/std/sigcontext.h'
p1927
sbsS'libpng.mkf'
p1928
g303
(g1403
g305
Ntp1929
Rp1930
(dp1931
g1407
g1032
sg1408
(lp1932
g1022
asg329
g1030
sbsS's3eClipboard.h'
p1933
g303
(g1403
g305
Ntp1934
Rp1935
(dp1936
g1407
g1415
sg1408
g1431
sg329
S'c:/marmalade/7.3/s3e/h/s3eClipboard.h'
p1937
sbsS'IwGxFuncTable.h'
p1938
g303
(g1403
g305
Ntp1939
Rp1940
(dp1941
g1407
g1213
sg1408
g1537
sg329
g1220
sbsS'IwResHandlerGROUP.h'
p1942
g303
(g1403
g305
Ntp1943
Rp1944
(dp1945
g1407
g1189
sg1408
(lp1946
g1049
ag1185
asg329
g1205
sbsS's3eDebug.h'
p1947
g303
(g1403
g305
Ntp1948
Rp1949
(dp1950
g1407
g1415
sg1408
g1431
sg329
S'c:/marmalade/7.3/s3e/h/s3eDebug.h'
p1951
sbsS'socket.h'
p1952
g303
(g1403
g305
Ntp1953
Rp1954
(dp1955
g1407
g1415
sg1408
g1551
sg329
S'c:/marmalade/7.3/s3e/h/std/sys/socket.h'
p1956
sbsS'glext.h'
p1957
g303
(g1403
g305
Ntp1958
Rp1959
(dp1960
g1407
g1415
sg1408
(lp1961
g1417
aS'GL'
p1962
aS'GLES 1.x'
p1963
asg329
S'c:/marmalade/7.3/s3e/h/GLES/glext.h'
p1964
sbsS'typeinfo.h'
p1965
g303
(g1403
g305
Ntp1966
Rp1967
(dp1968
g1407
g1415
sg1408
g1416
sg329
S'c:/marmalade/7.3/s3e/h/std/c++/typeinfo.h'
p1969
sbsS'typeinfo'
p1970
g303
(g1403
g305
Ntp1971
Rp1972
(dp1973
g1407
g1415
sg1408
g1416
sg329
S'c:/marmalade/7.3/s3e/h/std/c++/typeinfo'
p1974
sbsS'fstream.h'
p1975
g303
(g1403
g305
Ntp1976
Rp1977
(dp1978
g1407
g1415
sg1408
g1416
sg329
S'c:/marmalade/7.3/s3e/h/std/c++/fstream.h'
p1979
sbsS's3ePointer.h'
p1980
g303
(g1403
g305
Ntp1981
Rp1982
(dp1983
g1407
g1415
sg1408
g1431
sg329
S'c:/marmalade/7.3/s3e/h/s3ePointer.h'
p1984
sbsS'IwMemBucket.h'
p1985
g303
(g1403
g305
Ntp1986
Rp1987
(dp1988
g1407
g1277
sg1408
g1444
sg329
g1333
sbsS'PVRTexTool.h'
p1989
g303
(g1403
g305
Ntp1990
Rp1991
(dp1992
g1407
g1039
sg1408
(lp1993
g1033
ag1035
asg329
g1037
sbsS's3eGL.h'
p1994
g303
(g1403
g305
Ntp1995
Rp1996
(dp1997
g1407
g1415
sg1408
g1431
sg329
S'c:/marmalade/7.3/s3e/h/s3eGL.h'
p1998
sbsS'IwGeomFVec2.h'
p1999
g303
(g1403
g305
Ntp2000
Rp2001
(dp2002
g1407
g1113
sg1408
g1465
sg329
g1134
sbsS'IwGeomSVec4.h'
p2003
g303
(g1403
g305
Ntp2004
Rp2005
(dp2006
g1407
g1113
sg1408
g1465
sg329
g1165
sbsS'poll.h'
p2007
g303
(g1403
g305
Ntp2008
Rp2009
(dp2010
g1407
g1415
sg1408
g1437
sg329
S'c:/marmalade/7.3/s3e/h/std/poll.h'
p2011
sbsS'IwMatAnim.h'
p2012
g303
(g1403
g305
Ntp2013
Rp2014
(dp2015
g1407
g1213
sg1408
g1537
sg329
g1224
sbsS'PVRTexTool.defines.txt'
p2016
g303
(g1403
g305
Ntp2017
Rp2018
(dp2019
g1407
g1039
sg1408
(lp2020
g1033
ag1035
ag1040
asg329
g1044
sbsS'IwGx.h'
p2021
g303
(g1403
g305
Ntp2022
Rp2023
(dp2024
g1407
g1213
sg1408
g1537
sg329
g1238
sbsS'valarray'
p2025
g303
(g1403
g305
Ntp2026
Rp2027
(dp2028
g1407
g1415
sg1408
g1416
sg329
S'c:/marmalade/7.3/s3e/h/std/c++/valarray'
p2029
sbsS'iosfwd'
p2030
g303
(g1403
g305
Ntp2031
Rp2032
(dp2033
g1407
g1415
sg1408
g1416
sg329
S'c:/marmalade/7.3/s3e/h/std/c++/iosfwd'
p2034
sbsS'gl2.h'
p2035
g303
(g1403
g305
Ntp2036
Rp2037
(dp2038
g1407
g1415
sg1408
g1652
sg329
S'c:/marmalade/7.3/s3e/h/GLES2/gl2.h'
p2039
sbsS'jpegint.h'
p2040
g303
(g1403
g305
Ntp2041
Rp2042
(dp2043
g1407
g982
sg1408
g1495
sg329
g1005
sbsS'stdiostream.h'
p2044
g303
(g1403
g305
Ntp2045
Rp2046
(dp2047
g1407
g1415
sg1408
g1416
sg329
S'c:/marmalade/7.3/s3e/h/std/c++/stdiostream.h'
p2048
sbsS'mem.h'
p2049
g303
(g1403
g305
Ntp2050
Rp2051
(dp2052
g1407
g1415
sg1408
g1416
sg329
S'c:/marmalade/7.3/s3e/h/std/c++/mem.h'
p2053
sbsS'jerror.h'
p2054
g303
(g1403
g305
Ntp2055
Rp2056
(dp2057
g1407
g982
sg1408
g1495
sg329
g985
sbsS'zconf.h'
p2058
g303
(g1403
g305
Ntp2059
Rp2060
(dp2061
g1407
g1385
sg1408
(lp2062
g1377
ag978
asg329
g1386
sbsS's3e.config.txt'
p2063
g303
(g1403
g305
Ntp2064
Rp2065
(dp2066
g1407
g1415
sg1408
g1431
sg329
S'c:/marmalade/7.3/s3e/s3e.config.txt'
p2067
sbsS'numeric'
p2068
g303
(g1403
g305
Ntp2069
Rp2070
(dp2071
g1407
g1415
sg1408
g1416
sg329
S'c:/marmalade/7.3/s3e/h/std/c++/numeric'
p2072
sbsS'utime.h'
p2073
g303
(g1403
g305
Ntp2074
Rp2075
(dp2076
g1407
g1415
sg1408
g1437
sg329
S'c:/marmalade/7.3/s3e/h/std/utime.h'
p2077
sbsS'jdhuff.h'
p2078
g303
(g1403
g305
Ntp2079
Rp2080
(dp2081
g1407
g982
sg1408
g1495
sg329
g993
sbsS'IwGxStream.h'
p2082
g303
(g1403
g305
Ntp2083
Rp2084
(dp2085
g1407
g1213
sg1408
g1537
sg329
g1244
sbsS'IwImage.h'
p2086
g303
(g1403
g305
Ntp2087
Rp2088
(dp2089
g1407
g1277
sg1408
g1444
sg329
g1318
sbsS's3eImagePicker.h'
p2090
g303
(g1403
g305
Ntp2091
Rp2092
(dp2093
g1407
g1415
sg1408
g1620
sg329
S'c:/marmalade/7.3/s3e/h/ext/s3eImagePicker.h'
p2094
sbsS'IwTextParserITX.h'
p2095
g303
(g1403
g305
Ntp2096
Rp2097
(dp2098
g1407
g1277
sg1408
g1444
sg329
g1365
sbsS'stdlib.h'
p2099
g303
(g1403
g305
Ntp2100
Rp2101
(dp2102
g1407
g1415
sg1408
g1437
sg329
S'c:/marmalade/7.3/s3e/h/std/stdlib.h'
p2103
sbsS'IwCopyingPtr.h'
p2104
g303
(g1403
g305
Ntp2105
Rp2106
(dp2107
g1407
g1277
sg1408
g1444
sg329
g1337
sbsS'iostream'
p2108
g303
(g1403
g305
Ntp2109
Rp2110
(dp2111
g1407
g1415
sg1408
g1416
sg329
S'c:/marmalade/7.3/s3e/h/std/c++/iostream'
p2112
sbsS'png.h'
p2113
g303
(g1403
g305
Ntp2114
Rp2115
(dp2116
g1407
g1027
sg1408
(lp2117
g1022
ag978
asg329
g1028
sbsS'stddef.h'
p2118
g303
(g1403
g305
Ntp2119
Rp2120
(dp2121
g1407
g1415
sg1408
g1437
sg329
S'c:/marmalade/7.3/s3e/h/std/stddef.h'
p2122
sbsS'setjmp_win32.h'
p2123
g303
(g1403
g305
Ntp2124
Rp2125
(dp2126
g1407
g1415
sg1408
g1437
sg329
S'c:/marmalade/7.3/s3e/h/std/setjmp_win32.h'
p2127
sbsS'IwGxPrint.h'
p2128
g303
(g1403
g305
Ntp2129
Rp2130
(dp2131
g1407
g1213
sg1408
g1537
sg329
g1251
sbsS'iwgx_public.defines.txt'
p2132
g303
(g1403
g305
Ntp2133
Rp2134
(dp2135
g1407
g1213
sg1408
g1537
sg329
g1240
sbsS'streambuf.h'
p2136
g303
(g1403
g305
Ntp2137
Rp2138
(dp2139
g1407
g1415
sg1408
g1416
sg329
S'c:/marmalade/7.3/s3e/h/std/c++/streambuf.h'
p2140
sbsS'IwGeomFPlane.h'
p2141
g303
(g1403
g305
Ntp2142
Rp2143
(dp2144
g1407
g1113
sg1408
g1465
sg329
g1175
sbsS'wchar.h'
p2145
g303
(g1403
g305
Ntp2146
Rp2147
(dp2148
g1407
g1415
sg1408
g1437
sg329
S'c:/marmalade/7.3/s3e/h/std/wchar.h'
p2149
sbsS's3eCameraCapture.h'
p2150
g303
(g1403
g305
Ntp2151
Rp2152
(dp2153
g1407
g1415
sg1408
g1620
sg329
S'c:/marmalade/7.3/s3e/h/ext/s3eCameraCapture.h'
p2154
sbsS'eglext.h'
p2155
g303
(g1403
g305
Ntp2156
Rp2157
(dp2158
g1407
g1415
sg1408
g1744
sg329
S'c:/marmalade/7.3/s3e/h/EGL/eglext.h'
p2159
sbsS'IwResHandlerImage.h'
p2160
g303
(g1403
g305
Ntp2161
Rp2162
(dp2163
g1407
g1189
sg1408
g1946
sg329
g1190
sbsS'strstream.h'
p2164
g303
(g1403
g305
Ntp2165
Rp2166
(dp2167
g1407
g1415
sg1408
g1416
sg329
S'c:/marmalade/7.3/s3e/h/std/c++/strstream.h'
p2168
sbsS'tiniconv.h'
p2169
g303
(g1403
g305
Ntp2170
Rp2171
(dp2172
g1407
g1019
sg1408
g1855
sg329
g1020
sbsS'IwGLExt.h'
p2173
g303
(g1403
g305
Ntp2174
Rp2175
(dp2176
g1407
g1067
sg1408
g1425
sg329
g1071
sbsS'app.icf'
p2177
g303
(g1403
g305
Ntp2178
Rp2179
(dp2180
g1407
(dp2181
sg1408
g4
sg329
S'c:/Matz_Stuff/src/BallGame/data/app.icf'
p2182
sbsS'IwClassFactory.h'
p2183
g303
(g1403
g305
Ntp2184
Rp2185
(dp2186
g1407
g1277
sg1408
g1444
sg329
g1375
sbsS'file.h'
p2187
g303
(g1403
g305
Ntp2188
Rp2189
(dp2190
g1407
g1415
sg1408
g1551
sg329
S'c:/marmalade/7.3/s3e/h/std/sys/file.h'
p2191
sbsS'cstring'
p2192
g303
(g1403
g305
Ntp2193
Rp2194
(dp2195
g1407
g1415
sg1408
g1416
sg329
S'c:/marmalade/7.3/s3e/h/std/c++/cstring'
p2196
sbsS'iwutil.config.txt'
p2197
g303
(g1403
g305
Ntp2198
Rp2199
(dp2200
g1407
g1277
sg1408
g1444
sg329
g1280
sbsS's3eSMS.h'
p2201
g303
(g1403
g305
Ntp2202
Rp2203
(dp2204
g1407
g1415
sg1408
g1620
sg329
S'c:/marmalade/7.3/s3e/h/ext/s3eSMS.h'
p2205
sbsS'limits.h'
p2206
g303
(g1403
g305
Ntp2207
Rp2208
(dp2209
g1407
g1415
sg1408
g1437
sg329
S'c:/marmalade/7.3/s3e/h/std/limits.h'
p2210
sbsS'iwgl.config.txt'
p2211
g303
(g1403
g305
Ntp2212
Rp2213
(dp2214
g1407
g1067
sg1408
g1425
sg329
g1073
sbsS'IwMaterial.h'
p2215
g303
(g1403
g305
Ntp2216
Rp2217
(dp2218
g1407
g1213
sg1408
g1537
sg329
g1216
sbsS'PVRTexTool_interface.cpp'
p2219
g303
(g1403
g305
Ntp2220
Rp2221
(dp2222
g1407
g1039
sg1408
g2020
sg329
g1042
sbsS'IwGxSurface.h'
p2223
g303
(g1403
g305
Ntp2224
Rp2225
(dp2226
g1407
g1213
sg1408
g1537
sg329
g1253
sbsS's3eSocket.h'
p2227
g303
(g1403
g305
Ntp2228
Rp2229
(dp2230
g1407
g1415
sg1408
g1431
sg329
S'c:/marmalade/7.3/s3e/h/s3eSocket.h'
p2231
sbsS'IwAutoFile.h'
p2232
g303
(g1403
g305
Ntp2233
Rp2234
(dp2235
g1407
g1277
sg1408
g1444
sg329
g1306
sbsS'ipc.h'
p2236
g303
(g1403
g305
Ntp2237
Rp2238
(dp2239
g1407
g1415
sg1408
g1551
sg329
S'c:/marmalade/7.3/s3e/h/std/sys/ipc.h'
p2240
sbsS'poll_1.h'
p2241
g303
(g1403
g305
Ntp2242
Rp2243
(dp2244
g1407
g1415
sg1408
g1551
sg329
S'c:/marmalade/7.3/s3e/h/std/sys/poll.h'
p2245
sbsS's3eThread.h'
p2246
g303
(g1403
g305
Ntp2247
Rp2248
(dp2249
g1407
g1415
sg1408
g1431
sg329
S'c:/marmalade/7.3/s3e/h/s3eThread.h'
p2250
sbsS'ucontext.h'
p2251
g303
(g1403
g305
Ntp2252
Rp2253
(dp2254
g1407
g1415
sg1408
g1437
sg329
S'c:/marmalade/7.3/s3e/h/std/ucontext.h'
p2255
sbsS'time.h'
p2256
g303
(g1403
g305
Ntp2257
Rp2258
(dp2259
g1407
g1415
sg1408
g1437
sg329
S'c:/marmalade/7.3/s3e/h/std/time.h'
p2260
sbsS'jchuff.h'
p2261
g303
(g1403
g305
Ntp2262
Rp2263
(dp2264
g1407
g982
sg1408
g1495
sg329
g1003
sbsS's3eSoundRecord.h'
p2265
g303
(g1403
g305
Ntp2266
Rp2267
(dp2268
g1407
g1415
sg1408
g1431
sg329
S'c:/marmalade/7.3/s3e/h/s3eSoundRecord.h'
p2269
sbsS'IwFibre.h'
p2270
g303
(g1403
g305
Ntp2271
Rp2272
(dp2273
g1407
g1277
sg1408
g1444
sg329
g1341
sbsS's3eVersion.h'
p2274
g303
(g1403
g305
Ntp2275
Rp2276
(dp2277
g1407
g1415
sg1408
g1431
sg329
S'c:/marmalade/7.3/s3e/h/s3eVersion.h'
p2278
sbsS'IwGxFontGlyph.h'
p2279
g303
(g1403
g305
Ntp2280
Rp2281
(dp2282
g1407
g1091
sg1408
g1409
sg329
g1107
sbsS's3eTypes.h'
p2283
g303
(g1403
g305
Ntp2284
Rp2285
(dp2286
g1407
g1415
sg1408
g1431
sg329
S'c:/marmalade/7.3/s3e/h/s3eTypes.h'
p2287
sbsS'signal_2.h'
p2288
g303
(g1403
g305
Ntp2289
Rp2290
(dp2291
g1407
g1415
sg1408
g1416
sg329
S'c:/marmalade/7.3/s3e/h/std/c++/signal.h'
p2292
sbsS'termios.h'
p2293
g303
(g1403
g305
Ntp2294
Rp2295
(dp2296
g1407
g1415
sg1408
g1437
sg329
S'c:/marmalade/7.3/s3e/h/std/termios.h'
p2297
sbsS'iw2dscenegraph.mkf'
p2298
g303
(g1403
g305
Ntp2299
Rp2300
(dp2301
g1407
g1055
sg1408
g1660
sg329
g1053
sbsS'slist'
p2302
g303
(g1403
g305
Ntp2303
Rp2304
(dp2305
g1407
g1415
sg1408
g1416
sg329
S'c:/marmalade/7.3/s3e/h/std/c++/slist'
p2306
sbsS'cstdlib'
p2307
g303
(g1403
g305
Ntp2308
Rp2309
(dp2310
g1407
g1415
sg1408
g1416
sg329
S'c:/marmalade/7.3/s3e/h/std/c++/cstdlib'
p2311
sbsS's3eLocation.h'
p2312
g303
(g1403
g305
Ntp2313
Rp2314
(dp2315
g1407
g1415
sg1408
g1431
sg329
S'c:/marmalade/7.3/s3e/h/s3eLocation.h'
p2316
sbsS'IwMemBucketHelpers.h'
p2317
g303
(g1403
g305
Ntp2318
Rp2319
(dp2320
g1407
g1277
sg1408
g1444
sg329
g1324
sbsS's3eHash.h'
p2321
g303
(g1403
g305
Ntp2322
Rp2323
(dp2324
g1407
g1415
sg1408
g1431
sg329
S'c:/marmalade/7.3/s3e/h/s3eHash.h'
p2325
sbsS'IwGeomFMat.h'
p2326
g303
(g1403
g305
Ntp2327
Rp2328
(dp2329
g1407
g1113
sg1408
g1465
sg329
g1116
sbsS'type_traits.h'
p2330
g303
(g1403
g305
Ntp2331
Rp2332
(dp2333
g1407
g1415
sg1408
g1416
sg329
S'c:/marmalade/7.3/s3e/h/std/c++/type_traits.h'
p2334
sbsS'IwMenu.h'
p2335
g303
(g1403
g305
Ntp2336
Rp2337
(dp2338
g1407
g1277
sg1408
g1444
sg329
g1316
sbsS'IwResHandlerITX.h'
p2339
g303
(g1403
g305
Ntp2340
Rp2341
(dp2342
g1407
g1189
sg1408
g1946
sg329
g1203
sbsS'IwArray.h'
p2343
g303
(g1403
g305
Ntp2344
Rp2345
(dp2346
g1407
g1277
sg1408
g1444
sg329
g1328
sbsS'IwUTF8.h'
p2347
g303
(g1403
g305
Ntp2348
Rp2349
(dp2350
g1407
g1277
sg1408
g1444
sg329
g1288
sbsS'math_rvct.h'
p2351
g303
(g1403
g305
Ntp2352
Rp2353
(dp2354
g1407
g1415
sg1408
g1437
sg329
S'c:/marmalade/7.3/s3e/h/std/math_rvct.h'
p2355
sbsS'IwUtil.h'
p2356
g303
(g1403
g305
Ntp2357
Rp2358
(dp2359
g1407
g1277
sg1408
g1444
sg329
g1339
sbsS'IwFColour.h'
p2360
g303
(g1403
g305
Ntp2361
Rp2362
(dp2363
g1407
g1213
sg1408
g1537
sg329
g1242
sbsS'wctype.h'
p2364
g303
(g1403
g305
Ntp2365
Rp2366
(dp2367
g1407
g1415
sg1408
g1437
sg329
S'c:/marmalade/7.3/s3e/h/std/wctype.h'
p2368
sbsS'cstddef'
p2369
g303
(g1403
g305
Ntp2370
Rp2371
(dp2372
g1407
g1415
sg1408
g1416
sg329
S'c:/marmalade/7.3/s3e/h/std/c++/cstddef'
p2373
sbsS'assert.h'
p2374
g303
(g1403
g305
Ntp2375
Rp2376
(dp2377
g1407
g1415
sg1408
g1437
sg329
S'c:/marmalade/7.3/s3e/h/std/assert.h'
p2378
sbsS'mman.h'
p2379
g303
(g1403
g305
Ntp2380
Rp2381
(dp2382
g1407
g1415
sg1408
g1551
sg329
S'c:/marmalade/7.3/s3e/h/std/sys/mman.h'
p2383
sbsS'IwRandom.h'
p2384
g303
(g1403
g305
Ntp2385
Rp2386
(dp2387
g1407
g1277
sg1408
g1444
sg329
g1369
sbsS'libgen.h'
p2388
g303
(g1403
g305
Ntp2389
Rp2390
(dp2391
g1407
g1415
sg1408
g1437
sg329
S'c:/marmalade/7.3/s3e/h/std/libgen.h'
p2392
sbsS'utsname.h'
p2393
g303
(g1403
g305
Ntp2394
Rp2395
(dp2396
g1407
g1415
sg1408
g1551
sg329
S'c:/marmalade/7.3/s3e/h/std/sys/utsname.h'
p2397
sbsS'wait.h'
p2398
g303
(g1403
g305
Ntp2399
Rp2400
(dp2401
g1407
g1415
sg1408
g1551
sg329
S'c:/marmalade/7.3/s3e/h/std/sys/wait.h'
p2402
sbsS'param.h'
p2403
g303
(g1403
g305
Ntp2404
Rp2405
(dp2406
g1407
g1415
sg1408
g1551
sg329
S'c:/marmalade/7.3/s3e/h/std/sys/param.h'
p2407
sbsS'IwDivide.h'
p2408
g303
(g1403
g305
Ntp2409
Rp2410
(dp2411
g1407
g1277
sg1408
g1444
sg329
g1335
sbsS'Iw2DSceneGraphCore.cpp'
p2412
g303
(g1403
g305
Ntp2413
Rp2414
(dp2415
g1407
g1267
sg1408
(lp2416
S"'Marmalade Studio'"
p2417
ag1263
asg329
g1271
sbsS'IwResManager.h'
p2418
g303
(g1403
g305
Ntp2419
Rp2420
(dp2421
g1407
g1189
sg1408
g1946
sg329
g1194
sbsS'ostream'
p2422
g303
(g1403
g305
Ntp2423
Rp2424
(dp2425
g1407
g1415
sg1408
g1416
sg329
S'c:/marmalade/7.3/s3e/h/std/c++/ostream'
p2426
sbsS'cwctype'
p2427
g303
(g1403
g305
Ntp2428
Rp2429
(dp2430
g1407
g1415
sg1408
g1416
sg329
S'c:/marmalade/7.3/s3e/h/std/c++/cwctype'
p2431
sbsS'Ball.h'
p2432
g303
(g1403
g305
Ntp2433
Rp2434
(dp2435
g1407
g973
sg1408
(lp2436
g969
asg329
g971
sbsS'set'
p2437
g303
(g1403
g305
Ntp2438
Rp2439
(dp2440
g1407
g1415
sg1408
g1416
sg329
S'c:/marmalade/7.3/s3e/h/std/c++/set'
p2441
sbsS'IwGeomSQuat.h'
p2442
g303
(g1403
g305
Ntp2443
Rp2444
(dp2445
g1407
g1113
sg1408
g1465
sg329
g1114
sbsS'locale'
p2446
g303
(g1403
g305
Ntp2447
Rp2448
(dp2449
g1407
g1415
sg1408
g1416
sg329
S'c:/marmalade/7.3/s3e/h/std/c++/locale'
p2450
sbsS'cstdio'
p2451
g303
(g1403
g305
Ntp2452
Rp2453
(dp2454
g1407
g1415
sg1408
g1416
sg329
S'c:/marmalade/7.3/s3e/h/std/c++/cstdio'
p2455
sbsS'cdjpeg.h'
p2456
g303
(g1403
g305
Ntp2457
Rp2458
(dp2459
g1407
g982
sg1408
g1495
sg329
g987
sbsS'IwList.h'
p2460
g303
(g1403
g305
Ntp2461
Rp2462
(dp2463
g1407
g1277
sg1408
g1444
sg329
g1284
sbsS'inttypes.h'
p2464
g303
(g1403
g305
Ntp2465
Rp2466
(dp2467
g1407
g1415
sg1408
g1437
sg329
S'c:/marmalade/7.3/s3e/h/std/inttypes.h'
p2468
sbsS'dirent.h'
p2469
g303
(g1403
g305
Ntp2470
Rp2471
(dp2472
g1407
g1415
sg1408
g1437
sg329
S'c:/marmalade/7.3/s3e/h/std/dirent.h'
p2473
sbsS'IwGeomVec3.h'
p2474
g303
(g1403
g305
Ntp2475
Rp2476
(dp2477
g1407
g1113
sg1408
g1465
sg329
g1128
sbsS'transupp.h'
p2478
g303
(g1403
g305
Ntp2479
Rp2480
(dp2481
g1407
g982
sg1408
g1495
sg329
g989
sbsS'IwMath.h'
p2482
g303
(g1403
g305
Ntp2483
Rp2484
(dp2485
g1407
g1277
sg1408
g1444
sg329
g1292
sbsS'IwGeomQuat.h'
p2486
g303
(g1403
g305
Ntp2487
Rp2488
(dp2489
g1407
g1113
sg1408
g1465
sg329
g1169
sbsS'glplatform.h'
p2490
g303
(g1403
g305
Ntp2491
Rp2492
(dp2493
g1407
g1415
sg1408
g1961
sg329
S'c:/marmalade/7.3/s3e/h/GLES/glplatform.h'
p2494
sbsS'bitset'
p2495
g303
(g1403
g305
Ntp2496
Rp2497
(dp2498
g1407
g1415
sg1408
g1416
sg329
S'c:/marmalade/7.3/s3e/h/std/c++/bitset'
p2499
sbsS'alloca.h'
p2500
g303
(g1403
g305
Ntp2501
Rp2502
(dp2503
g1407
g1415
sg1408
g1437
sg329
S'c:/marmalade/7.3/s3e/h/std/alloca.h'
p2504
sbsS'IwResHandler.h'
p2505
g303
(g1403
g305
Ntp2506
Rp2507
(dp2508
g1407
g1189
sg1408
g1946
sg329
g1187
sbsS'IwResHandlerMTL.h'
p2509
g303
(g1403
g305
Ntp2510
Rp2511
(dp2512
g1407
g1213
sg1408
g1537
sg329
g1211
sbsS'IwRuntime.h'
p2513
g303
(g1403
g305
Ntp2514
Rp2515
(dp2516
g1407
g1277
sg1408
g1444
sg329
g1300
sbsS'limits'
p2517
g303
(g1403
g305
Ntp2518
Rp2519
(dp2520
g1407
g1415
sg1408
g1416
sg329
S'c:/marmalade/7.3/s3e/h/std/c++/limits'
p2521
sbsS'IwGeomBBox.h'
p2522
g303
(g1403
g305
Ntp2523
Rp2524
(dp2525
g1407
g1113
sg1408
g1465
sg329
g1179
sbsS's3eContacts.h'
p2526
g303
(g1403
g305
Ntp2527
Rp2528
(dp2529
g1407
g1415
sg1408
g1431
sg329
S'c:/marmalade/7.3/s3e/h/s3eContacts.h'
p2530
sbsS's3eLicense.h'
p2531
g303
(g1403
g305
Ntp2532
Rp2533
(dp2534
g1407
g1415
sg1408
g1431
sg329
S'c:/marmalade/7.3/s3e/h/s3eLicense.h'
p2535
sbsS'iwgx.config.txt'
p2536
g303
(g1403
g305
Ntp2537
Rp2538
(dp2539
g1407
g1213
sg1408
g1537
sg329
g1234
sbsS'IwTextParser.h'
p2540
g303
(g1403
g305
Ntp2541
Rp2542
(dp2543
g1407
g1277
sg1408
g1444
sg329
g1294
sbsS's3eTimer.h'
p2544
g303
(g1403
g305
Ntp2545
Rp2546
(dp2547
g1407
g1415
sg1408
g1431
sg329
S'c:/marmalade/7.3/s3e/h/s3eTimer.h'
p2548
sbsS'IwGeomVec.h'
p2549
g303
(g1403
g305
Ntp2550
Rp2551
(dp2552
g1407
g1113
sg1408
g1465
sg329
g1146
sbsS'IwSerialise.h'
p2553
g303
(g1403
g305
Ntp2554
Rp2555
(dp2556
g1407
g1277
sg1408
g1444
sg329
g1304
sbsS'cstdarg'
p2557
g303
(g1403
g305
Ntp2558
Rp2559
(dp2560
g1407
g1415
sg1408
g1416
sg329
S'c:/marmalade/7.3/s3e/h/std/c++/cstdarg'
p2561
sbsS'gl2ext.h'
p2562
g303
(g1403
g305
Ntp2563
Rp2564
(dp2565
g1407
g1415
sg1408
g1652
sg329
S'c:/marmalade/7.3/s3e/h/GLES2/gl2ext.h'
p2566
sbsS'IwChar.h'
p2567
g303
(g1403
g305
Ntp2568
Rp2569
(dp2570
g1407
g1277
sg1408
g1444
sg329
g1357
sbsS's3eSound.h'
p2571
g303
(g1403
g305
Ntp2572
Rp2573
(dp2574
g1407
g1415
sg1408
g1431
sg329
S'c:/marmalade/7.3/s3e/h/s3eSound.h'
p2575
sbsS'IwOptimiseThumb.h'
p2576
g303
(g1403
g305
Ntp2577
Rp2578
(dp2579
g1407
g1277
sg1408
g1444
sg329
g1302
sbsS'exception.h'
p2580
g303
(g1403
g305
Ntp2581
Rp2582
(dp2583
g1407
g1415
sg1408
g1416
sg329
S'c:/marmalade/7.3/s3e/h/std/c++/exception.h'
p2584
sbsS'iwgeom.config.txt'
p2585
g303
(g1403
g305
Ntp2586
Rp2587
(dp2588
g1407
g1113
sg1408
g1465
sg329
g1152
sbsS'iwgx.mkf'
p2589
g303
(g1403
g305
Ntp2590
Rp2591
(dp2592
g1407
g1250
sg1408
g1537
sg329
g1248
sbsS'gl.h'
p2593
g303
(g1403
g305
Ntp2594
Rp2595
(dp2596
g1407
g1415
sg1408
g1961
sg329
S'c:/marmalade/7.3/s3e/h/GLES/gl.h'
p2597
sbsS'zlib.h'
p2598
g303
(g1403
g305
Ntp2599
Rp2600
(dp2601
g1407
g1385
sg1408
g2062
sg329
g1383
sbsS'iwgl.mkf'
p2602
g303
(g1403
g305
Ntp2603
Rp2604
(dp2605
g1407
g1070
sg1408
g1425
sg329
g1068
sbsS'IwColour.h'
p2606
g303
(g1403
g305
Ntp2607
Rp2608
(dp2609
g1407
g1213
sg1408
g1537
sg329
g1236
sbsS's3eLibrary.h'
p2610
g303
(g1403
g305
Ntp2611
Rp2612
(dp2613
g1407
g1415
sg1408
g1620
sg329
S'c:/marmalade/7.3/s3e/h/ext/s3eLibrary.h'
p2614
sbsS'types.h'
p2615
g303
(g1403
g305
Ntp2616
Rp2617
(dp2618
g1407
g1415
sg1408
g1551
sg329
S'c:/marmalade/7.3/s3e/h/std/sys/types.h'
p2619
sbsS'ifaddrs.h'
p2620
g303
(g1403
g305
Ntp2621
Rp2622
(dp2623
g1407
g1415
sg1408
g1437
sg329
S'c:/marmalade/7.3/s3e/h/std/ifaddrs.h'
p2624
sbsS'strstream'
p2625
g303
(g1403
g305
Ntp2626
Rp2627
(dp2628
g1407
g1415
sg1408
g1416
sg329
S'c:/marmalade/7.3/s3e/h/std/c++/strstream'
p2629
sbsS'IwTween.cpp'
p2630
g303
(g1403
g305
Ntp2631
Rp2632
(dp2633
g1407
g1392
sg1408
g1898
sg329
g1390
sbsS'exception'
p2634
g303
(g1403
g305
Ntp2635
Rp2636
(dp2637
g1407
g1415
sg1408
g1416
sg329
S'c:/marmalade/7.3/s3e/h/std/c++/exception'
p2638
sbsS'rlocks.h'
p2639
g303
(g1403
g305
Ntp2640
Rp2641
(dp2642
g1407
g1415
sg1408
g1416
sg329
S'c:/marmalade/7.3/s3e/h/std/c++/rlocks.h'
p2643
sbsS'ioctl.h'
p2644
g303
(g1403
g305
Ntp2645
Rp2646
(dp2647
g1407
g1415
sg1408
g1551
sg329
S'c:/marmalade/7.3/s3e/h/std/sys/ioctl.h'
p2648
sbsS'rope'
p2649
g303
(g1403
g305
Ntp2650
Rp2651
(dp2652
g1407
g1415
sg1408
g1416
sg329
S'c:/marmalade/7.3/s3e/h/std/c++/rope'
p2653
sbsS'jinclude.h'
p2654
g303
(g1403
g305
Ntp2655
Rp2656
(dp2657
g1407
g982
sg1408
g1495
sg329
g1001
sbsS'IwEvent.h'
p2658
g303
(g1403
g305
Ntp2659
Rp2660
(dp2661
g1407
g1277
sg1408
g1444
sg329
g1347
sbsS'IwOptimiseSize.h'
p2662
g303
(g1403
g305
Ntp2663
Rp2664
(dp2665
g1407
g1277
sg1408
g1444
sg329
g1367
sbsS'iwgxfont_public.defines.txt'
p2666
g303
(g1403
g305
Ntp2667
Rp2668
(dp2669
g1407
g1091
sg1408
g1409
sg329
g1099
sbsS'iconv.h'
p2670
g303
(g1403
g305
Ntp2671
Rp2672
(dp2673
g1407
g1415
sg1408
g1437
sg329
S'c:/marmalade/7.3/s3e/h/std/iconv.h'
p2674
sbsS'sendfile.h'
p2675
g303
(g1403
g305
Ntp2676
Rp2677
(dp2678
g1407
g1415
sg1408
g1551
sg329
S'c:/marmalade/7.3/s3e/h/std/sys/sendfile.h'
p2679
sbsS'IwGeomSphere.h'
p2680
g303
(g1403
g305
Ntp2681
Rp2682
(dp2683
g1407
g1113
sg1408
g1465
sg329
g1136
sbsS'tiniconv.mkf'
p2684
g303
(g1403
g305
Ntp2685
Rp2686
(dp2687
g1407
g1016
sg1408
g1855
sg329
g1014
sbsS'IwResManagerClass.h'
p2688
g303
(g1403
g305
Ntp2689
Rp2690
(dp2691
g1407
g1189
sg1408
g1946
sg329
g1207
sbsS'jdct.h'
p2692
g303
(g1403
g305
Ntp2693
Rp2694
(dp2695
g1407
g982
sg1408
g1495
sg329
g995
sbsS'cctype'
p2696
g303
(g1403
g305
Ntp2697
Rp2698
(dp2699
g1407
g1415
sg1408
g1416
sg329
S'c:/marmalade/7.3/s3e/h/std/c++/cctype'
p2700
sbsS's3eConfig.h'
p2701
g303
(g1403
g305
Ntp2702
Rp2703
(dp2704
g1407
g1415
sg1408
g1431
sg329
S'c:/marmalade/7.3/s3e/h/s3eConfig.h'
p2705
sbsS'IwHashString.h'
p2706
g303
(g1403
g305
Ntp2707
Rp2708
(dp2709
g1407
g1277
sg1408
g1444
sg329
g1290
sbsS'stat.h'
p2710
g303
(g1403
g305
Ntp2711
Rp2712
(dp2713
g1407
g1415
sg1408
g1551
sg329
S'c:/marmalade/7.3/s3e/h/std/sys/stat.h'
p2714
sbsS'byteswap.h'
p2715
g303
(g1403
g305
Ntp2716
Rp2717
(dp2718
g1407
g1415
sg1408
g1437
sg329
S'c:/marmalade/7.3/s3e/h/std/byteswap.h'
p2719
sbsS'iwresmanager.mkf'
p2720
g303
(g1403
g305
Ntp2721
Rp2722
(dp2723
g1407
g1200
sg1408
g1946
sg329
g1198
sbsS'IwUtilInitTerm.h'
p2724
g303
(g1403
g305
Ntp2725
Rp2726
(dp2727
g1407
g1277
sg1408
g1444
sg329
g1282
sbsS'pthread_1.h'
p2728
g303
(g1403
g305
Ntp2729
Rp2730
(dp2731
g1407
g1415
sg1408
g1416
sg329
S'c:/marmalade/7.3/s3e/h/std/c++/pthread.h'
p2732
sbsS'iw2d.mkf'
p2733
g303
(g1403
g305
Ntp2734
Rp2735
(dp2736
g1407
g1079
sg1408
g1500
sg329
g1077
sbsS'complex'
p2737
g303
(g1403
g305
Ntp2738
Rp2739
(dp2740
g1407
g1415
sg1408
g1416
sg329
S'c:/marmalade/7.3/s3e/h/std/c++/complex'
p2741
sbsS's3e.icf'
p2742
g303
(g1403
g305
Ntp2743
Rp2744
(dp2745
g1407
g1415
sg1408
g1431
sg329
S'c:/marmalade/7.3/s3e/s3e.icf'
p2746
sbsS'IwVariableBitField.h'
p2747
g303
(g1403
g305
Ntp2748
Rp2749
(dp2750
g1407
g1277
sg1408
g1444
sg329
g1275
sbsS'sem.h'
p2751
g303
(g1403
g305
Ntp2752
Rp2753
(dp2754
g1407
g1415
sg1408
g1551
sg329
S'c:/marmalade/7.3/s3e/h/std/sys/sem.h'
p2755
sbsS'IwGxFontState.h'
p2756
g303
(g1403
g305
Ntp2757
Rp2758
(dp2759
g1407
g1091
sg1408
g1409
sg329
g1101
sbsS'stdio.h'
p2760
g303
(g1403
g305
Ntp2761
Rp2762
(dp2763
g1407
g1415
sg1408
g1437
sg329
S'c:/marmalade/7.3/s3e/h/std/stdio.h'
p2764
sbsS'jmemsys.h'
p2765
g303
(g1403
g305
Ntp2766
Rp2767
(dp2768
g1407
g982
sg1408
g1495
sg329
g983
sbsS'ios'
p2769
g303
(g1403
g305
Ntp2770
Rp2771
(dp2772
g1407
g1415
sg1408
g1416
sg329
S'c:/marmalade/7.3/s3e/h/std/c++/ios'
p2773
sbsS'IwTween.h'
p2774
g303
(g1403
g305
Ntp2775
Rp2776
(dp2777
g1407
g1392
sg1408
g1898
sg329
g1393
sbsS'IwGeomFVec4.h'
p2778
g303
(g1403
g305
Ntp2779
Rp2780
(dp2781
g1407
g1113
sg1408
g1465
sg329
g1111
sbsS'stack'
p2782
g303
(g1403
g305
Ntp2783
Rp2784
(dp2785
g1407
g1415
sg1408
g1416
sg329
S'c:/marmalade/7.3/s3e/h/std/c++/stack'
p2786
sbsS'new.h'
p2787
g303
(g1403
g305
Ntp2788
Rp2789
(dp2790
g1407
g1415
sg1408
g1416
sg329
S'c:/marmalade/7.3/s3e/h/std/c++/new.h'
p2791
sbsS's3eEMail.h'
p2792
g303
(g1403
g305
Ntp2793
Rp2794
(dp2795
g1407
g1415
sg1408
g1620
sg329
S'c:/marmalade/7.3/s3e/h/ext/s3eEMail.h'
p2796
sbsS's3eVideo.h'
p2797
g303
(g1403
g305
Ntp2798
Rp2799
(dp2800
g1407
g1415
sg1408
g1431
sg329
S'c:/marmalade/7.3/s3e/h/s3eVideo.h'
p2801
sbsS'pngconf.h'
p2802
g303
(g1403
g305
Ntp2803
Rp2804
(dp2805
g1407
g1027
sg1408
g2117
sg329
g1025
sbsS'pwd.h'
p2806
g303
(g1403
g305
Ntp2807
Rp2808
(dp2809
g1407
g1415
sg1408
g1437
sg329
S'c:/marmalade/7.3/s3e/h/std/pwd.h'
p2810
sbsS'gl3.h'
p2811
g303
(g1403
g305
Ntp2812
Rp2813
(dp2814
g1407
g1415
sg1408
g1712
sg329
S'c:/marmalade/7.3/s3e/h/GLES3/gl3.h'
p2815
sbsS'IwClip.h'
p2816
g303
(g1403
g305
Ntp2817
Rp2818
(dp2819
g1407
g1213
sg1408
g1537
sg329
g1230
sbsS'Ball.cpp'
p2820
g303
(g1403
g305
Ntp2821
Rp2822
(dp2823
g1407
g973
sg1408
g2436
sg329
g974
sbsS'iwresmanager.config.txt'
p2824
g303
(g1403
g305
Ntp2825
Rp2826
(dp2827
g1407
g1189
sg1408
g1946
sg329
g1192
sbsS'IwGxShaderTechnique.h'
p2828
g303
(g1403
g305
Ntp2829
Rp2830
(dp2831
g1407
g1213
sg1408
g1537
sg329
g1226
sbsS'IwCore.h'
p2832
g303
(g1403
g305
Ntp2833
Rp2834
(dp2835
g1407
g1277
sg1408
g1444
sg329
g1355
sbsS'cfloat'
p2836
g303
(g1403
g305
Ntp2837
Rp2838
(dp2839
g1407
g1415
sg1408
g1416
sg329
S'c:/marmalade/7.3/s3e/h/std/c++/cfloat'
p2840
sbsS'IwGeomMat2D.h'
p2841
g303
(g1403
g305
Ntp2842
Rp2843
(dp2844
g1407
g1113
sg1408
g1465
sg329
g1120
sbsS'IwAllocator.h'
p2845
g303
(g1403
g305
Ntp2846
Rp2847
(dp2848
g1407
g1277
sg1408
g1444
sg329
g1286
sbsS'BallGame.cpp'
p2849
g303
(g1403
g305
Ntp2850
Rp2851
(dp2852
g1407
g973
sg1408
(lp2853
sg329
g1398
sbsS'IwPath.h'
p2854
g303
(g1403
g305
Ntp2855
Rp2856
(dp2857
g1407
g1277
sg1408
g1444
sg329
g1310
sbsS'iwgxfont.mkf'
p2858
g303
(g1403
g305
Ntp2859
Rp2860
(dp2861
g1407
g1096
sg1408
g1409
sg329
g1094
sbsS'IwTexture.h'
p2862
g303
(g1403
g305
Ntp2863
Rp2864
(dp2865
g1407
g1213
sg1408
g1537
sg329
g1259
sbsS'IwGeomVec.h.tpl'
p2866
g303
(g1403
g305
Ntp2867
Rp2868
(dp2869
g1407
g1113
sg1408
g1465
sg329
g1183
sbsS's3eAccelerometer.h'
p2870
g303
(g1403
g305
Ntp2871
Rp2872
(dp2873
g1407
g1415
sg1408
g1431
sg329
S'c:/marmalade/7.3/s3e/h/s3eAccelerometer.h'
p2874
sbsS'setjmp.h'
p2875
g303
(g1403
g305
Ntp2876
Rp2877
(dp2878
g1407
g1415
sg1408
g1437
sg329
S'c:/marmalade/7.3/s3e/h/std/setjmp.h'
p2879
sbsS'IwFile.h'
p2880
g303
(g1403
g305
Ntp2881
Rp2882
(dp2883
g1407
g1277
sg1408
g1444
sg329
g1312
sbsS'IwTextParseable.h'
p2884
g303
(g1403
g305
Ntp2885
Rp2886
(dp2887
g1407
g1277
sg1408
g1444
sg329
g1314
sbsS'istream.h'
p2888
g303
(g1403
g305
Ntp2889
Rp2890
(dp2891
g1407
g1415
sg1408
g1416
sg329
S'c:/marmalade/7.3/s3e/h/std/c++/istream.h'
p2892
sbsS'stdint.h'
p2893
g303
(g1403
g305
Ntp2894
Rp2895
(dp2896
g1407
g1415
sg1408
g1437
sg329
S'c:/marmalade/7.3/s3e/h/std/stdint.h'
p2897
sbsS'semaphore.h'
p2898
g303
(g1403
g305
Ntp2899
Rp2900
(dp2901
g1407
g1415
sg1408
g1437
sg329
S'c:/marmalade/7.3/s3e/h/std/semaphore.h'
p2902
sbsS'ctime'
p2903
g303
(g1403
g305
Ntp2904
Rp2905
(dp2906
g1407
g1415
sg1408
g1416
sg329
S'c:/marmalade/7.3/s3e/h/std/c++/ctime'
p2907
sbsS'sstream'
p2908
g303
(g1403
g305
Ntp2909
Rp2910
(dp2911
g1407
g1415
sg1408
g1416
sg329
S'c:/marmalade/7.3/s3e/h/std/c++/sstream'
p2912
sbsS'IwGeomFBBox.h'
p2913
g303
(g1403
g305
Ntp2914
Rp2915
(dp2916
g1407
g1113
sg1408
g1465
sg329
g1148
sbsS'IwDebugPrim.h'
p2917
g303
(g1403
g305
Ntp2918
Rp2919
(dp2920
g1407
g1213
sg1408
g1537
sg329
g1218
sbsS'IwGxFontContainer.h'
p2921
g303
(g1403
g305
Ntp2922
Rp2923
(dp2924
g1407
g1091
sg1408
g1409
sg329
g1103
sbsS'IwGeomSVec3.h'
p2925
g303
(g1403
g305
Ntp2926
Rp2927
(dp2928
g1407
g1113
sg1408
g1465
sg329
g1161
sbsS'iw2dscenegraphcore.mkf'
p2929
g303
(g1403
g305
Ntp2930
Rp2931
(dp2932
g1407
g1270
sg1408
g2416
sg329
g1268
sbsS'cassert'
p2933
g303
(g1403
g305
Ntp2934
Rp2935
(dp2936
g1407
g1415
sg1408
g1416
sg329
S'c:/marmalade/7.3/s3e/h/std/c++/cassert'
p2937
sbsS'IwGeomFVec3.h'
p2938
g303
(g1403
g305
Ntp2939
Rp2940
(dp2941
g1407
g1113
sg1408
g1465
sg329
g1126
sbsS'streambuf'
p2942
g303
(g1403
g305
Ntp2943
Rp2944
(dp2945
g1407
g1415
sg1408
g1416
sg329
S'c:/marmalade/7.3/s3e/h/std/c++/streambuf'
p2946
sbsS's3eMetrics.h'
p2947
g303
(g1403
g305
Ntp2948
Rp2949
(dp2950
g1407
g1415
sg1408
g1620
sg329
S'c:/marmalade/7.3/s3e/h/ext/s3eMetrics.h'
p2951
sbsS'IwGxFont.h'
p2952
g303
(g1403
g305
Ntp2953
Rp2954
(dp2955
g1407
g1091
sg1408
g1409
sg329
g1089
sbsS's3eSecureStorage.h'
p2956
g303
(g1403
g305
Ntp2957
Rp2958
(dp2959
g1407
g1415
sg1408
g1431
sg329
S'c:/marmalade/7.3/s3e/h/s3eSecureStorage.h'
p2960
sbsS'string.h'
p2961
g303
(g1403
g305
Ntp2962
Rp2963
(dp2964
g1407
g1415
sg1408
g1437
sg329
S'c:/marmalade/7.3/s3e/h/std/string.h'
p2965
sbsS'IwResource.h'
p2966
g303
(g1403
g305
Ntp2967
Rp2968
(dp2969
g1407
g1277
sg1408
g1444
sg329
g1371
sbsS'IwGeomSVec2.h'
p2970
g303
(g1403
g305
Ntp2971
Rp2972
(dp2973
g1407
g1113
sg1408
g1465
sg329
g1181
sbsS'libjpeg.mkf'
p2974
g303
(g1403
g305
Ntp2975
Rp2976
(dp2977
g1407
g1011
sg1408
(lp2978
g976
asg329
g1009
sbsS'IwGxDebug.h'
p2979
g303
(g1403
g305
Ntp2980
Rp2981
(dp2982
g1407
g1213
sg1408
g1537
sg329
g1257
sbsS'pthread_types.h'
p2983
g303
(g1403
g305
Ntp2984
Rp2985
(dp2986
g1407
g1415
sg1408
g1437
sg329
S'c:/marmalade/7.3/s3e/h/std/pthread_types.h'
p2987
sbsS'iomanip.h'
p2988
g303
(g1403
g305
Ntp2989
Rp2990
(dp2991
g1407
g1415
sg1408
g1416
sg329
S'c:/marmalade/7.3/s3e/h/std/c++/iomanip.h'
p2992
sbsS'IwKeymap.h'
p2993
g303
(g1403
g305
Ntp2994
Rp2995
(dp2996
g1407
g1277
sg1408
g1444
sg329
g1353
sbsS'IwDebug.h'
p2997
g303
(g1403
g305
Ntp2998
Rp2999
(dp3000
g1407
g1277
sg1408
g1444
sg329
g1326
sbsS's3eIOSBackgroundAudio.h'
p3001
g303
(g1403
g305
Ntp3002
Rp3003
(dp3004
g1407
g1415
sg1408
g1620
sg329
S'c:/marmalade/7.3/s3e/h/ext/s3eIOSBackgroundAudio.h'
p3005
sbsS'IwGeomMenu.h'
p3006
g303
(g1403
g305
Ntp3007
Rp3008
(dp3009
g1407
g1113
sg1408
g1465
sg329
g1118
sbsS'IwDivTable.h'
p3010
g303
(g1403
g305
Ntp3011
Rp3012
(dp3013
g1407
g1277
sg1408
g1444
sg329
g1322
sbsS'ctype.h'
p3014
g303
(g1403
g305
Ntp3015
Rp3016
(dp3017
g1407
g1415
sg1408
g1437
sg329
S'c:/marmalade/7.3/s3e/h/std/ctype.h'
p3018
sbsS'IwGeomMat.h'
p3019
g303
(g1403
g305
Ntp3020
Rp3021
(dp3022
g1407
g1113
sg1408
g1465
sg329
g1163
sbsS'IwResGroup.h'
p3023
g303
(g1403
g305
Ntp3024
Rp3025
(dp3026
g1407
g1189
sg1408
g1946
sg329
g1201
sbsS'signal_1.h'
p3027
g303
(g1403
g305
Ntp3028
Rp3029
(dp3030
g1407
g1415
sg1408
g1551
sg329
S'c:/marmalade/7.3/s3e/h/std/sys/signal.h'
p3031
sbsS'functional'
p3032
g303
(g1403
g305
Ntp3033
Rp3034
(dp3035
g1407
g1415
sg1408
g1416
sg329
S'c:/marmalade/7.3/s3e/h/std/c++/functional'
p3036
sbsS'shm.h'
p3037
g303
(g1403
g305
Ntp3038
Rp3039
(dp3040
g1407
g1415
sg1408
g1551
sg329
S'c:/marmalade/7.3/s3e/h/std/sys/shm.h'
p3041
sbsS'IwManagedList.h'
p3042
g303
(g1403
g305
Ntp3043
Rp3044
(dp3045
g1407
g1277
sg1408
g1444
sg329
g1278
sbsS'prctl.h'
p3046
g303
(g1403
g305
Ntp3047
Rp3048
(dp3049
g1407
g1415
sg1408
g1551
sg329
S'c:/marmalade/7.3/s3e/h/std/sys/prctl.h'
p3050
sbsS'un.h'
p3051
g303
(g1403
g305
Ntp3052
Rp3053
(dp3054
g1407
g1415
sg1408
g1551
sg329
S'c:/marmalade/7.3/s3e/h/std/sys/un.h'
p3055
sbsS'utility'
p3056
g303
(g1403
g305
Ntp3057
Rp3058
(dp3059
g1407
g1415
sg1408
g1416
sg329
S'c:/marmalade/7.3/s3e/h/std/c++/utility'
p3060
sbsS'IwGeomLegacy.h'
p3061
g303
(g1403
g305
Ntp3062
Rp3063
(dp3064
g1407
g1113
sg1408
g1465
sg329
g1138
sbsS'IwTPage.h'
p3065
g303
(g1403
g305
Ntp3066
Rp3067
(dp3068
g1407
g1213
sg1408
g1537
sg329
g1232
sbsS'IwResSerialise.h'
p3069
g303
(g1403
g305
Ntp3070
Rp3071
(dp3072
g1407
g1189
sg1408
g1946
sg329
g1196
sbsS's3eCrypto.h'
p3073
g303
(g1403
g305
Ntp3074
Rp3075
(dp3076
g1407
g1415
sg1408
g1431
sg329
S'c:/marmalade/7.3/s3e/h/s3eCrypto.h'
p3077
sbsS's3eKeyboard.h'
p3078
g303
(g1403
g305
Ntp3079
Rp3080
(dp3081
g1407
g1415
sg1408
g1431
sg329
S'c:/marmalade/7.3/s3e/h/s3eKeyboard.h'
p3082
sbsS'fcntl.h'
p3083
g303
(g1403
g305
Ntp3084
Rp3085
(dp3086
g1407
g1415
sg1408
g1437
sg329
S'c:/marmalade/7.3/s3e/h/std/fcntl.h'
p3087
sbsS'Iw2DSceneGraphCore.h'
p3088
g303
(g1403
g305
Ntp3089
Rp3090
(dp3091
g1407
g1267
sg1408
g2416
sg329
g1265
sbsS'memory.h'
p3092
g303
(g1403
g305
Ntp3093
Rp3094
(dp3095
g1407
g1415
sg1408
g1437
sg329
S'c:/marmalade/7.3/s3e/h/std/memory.h'
p3096
sbsS'pthread.h'
p3097
g303
(g1403
g305
Ntp3098
Rp3099
(dp3100
g1407
g1415
sg1408
g1437
sg329
S'c:/marmalade/7.3/s3e/h/std/pthread.h'
p3101
sbsS'IwGeomIntersect.h'
p3102
g303
(g1403
g305
Ntp3103
Rp3104
(dp3105
g1407
g1113
sg1408
g1465
sg329
g1171
sbsS'algorithm'
p3106
g303
(g1403
g305
Ntp3107
Rp3108
(dp3109
g1407
g1415
sg1408
g1416
sg329
S'c:/marmalade/7.3/s3e/h/std/c++/algorithm'
p3110
sbsS'egl_1.h'
p3111
g303
(g1403
g305
Ntp3112
Rp3113
(dp3114
g1407
g1415
sg1408
g1961
sg329
S'c:/marmalade/7.3/s3e/h/GLES/egl.h'
p3115
sbsS'Iw2DSceneGraph.cpp'
p3116
g303
(g1403
g305
Ntp3117
Rp3118
(dp3119
g1407
g1058
sg1408
g1660
sg329
g1059
sbsS'ostream.h'
p3120
g303
(g1403
g305
Ntp3121
Rp3122
(dp3123
g1407
g1415
sg1408
g1416
sg329
S'c:/marmalade/7.3/s3e/h/std/c++/ostream.h'
p3124
sbsS'stl_user_config.h'
p3125
g303
(g1403
g305
Ntp3126
Rp3127
(dp3128
g1407
g1415
sg1408
g1416
sg329
S'c:/marmalade/7.3/s3e/h/std/c++/stl_user_config.h'
p3129
sbsS'IwProfileMenu.h'
p3130
g303
(g1403
g305
Ntp3131
Rp3132
(dp3133
g1407
g1277
sg1408
g1444
sg329
g1320
sbsS'MarmaladeVersion.h'
p3134
g303
(g1403
g305
Ntp3135
Rp3136
(dp3137
g1407
g1415
sg1408
g1431
sg329
S'c:/marmalade/7.3/s3e/h/MarmaladeVersion.h'
p3138
sbsS'gl3platform.h'
p3139
g303
(g1403
g305
Ntp3140
Rp3141
(dp3142
g1407
g1415
sg1408
g1712
sg329
S'c:/marmalade/7.3/s3e/h/GLES3/gl3platform.h'
p3143
sbsS'ios.h'
p3144
g303
(g1403
g305
Ntp3145
Rp3146
(dp3147
g1407
g1415
sg1408
g1416
sg329
S'c:/marmalade/7.3/s3e/h/std/c++/ios.h'
p3148
sbsS'IwImageHelper.h'
p3149
g303
(g1403
g305
Ntp3150
Rp3151
(dp3152
g1407
g1277
sg1408
g1444
sg329
g1343
sbsS'hash_set'
p3153
g303
(g1403
g305
Ntp3154
Rp3155
(dp3156
g1407
g1415
sg1408
g1416
sg329
S'c:/marmalade/7.3/s3e/h/std/c++/hash_set'
p3157
sbsS'IwGeomFQuat.h'
p3158
g303
(g1403
g305
Ntp3159
Rp3160
(dp3161
g1407
g1113
sg1408
g1465
sg329
g1157
sbsS'jmorecfg.h'
p3162
g303
(g1403
g305
Ntp3163
Rp3164
(dp3165
g1407
g982
sg1408
g1495
sg329
g999
sbsS'eglplatform.h'
p3166
g303
(g1403
g305
Ntp3167
Rp3168
(dp3169
g1407
g1415
sg1408
g1744
sg329
S'c:/marmalade/7.3/s3e/h/EGL/eglplatform.h'
p3170
sbsS'cmath'
p3171
g303
(g1403
g305
Ntp3172
Rp3173
(dp3174
g1407
g1415
sg1408
g1416
sg329
S'c:/marmalade/7.3/s3e/h/std/c++/cmath'
p3175
sbsS'math_gcc.h'
p3176
g303
(g1403
g305
Ntp3177
Rp3178
(dp3179
g1407
g1415
sg1408
g1437
sg329
S'c:/marmalade/7.3/s3e/h/std/math_gcc.h'
p3180
sbsS's3eMemory.h'
p3181
g303
(g1403
g305
Ntp3182
Rp3183
(dp3184
g1407
g1415
sg1408
g1431
sg329
S'c:/marmalade/7.3/s3e/h/s3eMemory.h'
p3185
sbsS'strings.h'
p3186
g303
(g1403
g305
Ntp3187
Rp3188
(dp3189
g1407
g1415
sg1408
g1437
sg329
S'c:/marmalade/7.3/s3e/h/std/strings.h'
p3190
sbsS's3eFile.h'
p3191
g303
(g1403
g305
Ntp3192
Rp3193
(dp3194
g1407
g1415
sg1408
g1431
sg329
S'c:/marmalade/7.3/s3e/h/s3eFile.h'
p3195
sbsS'IwGxTypes.h'
p3196
g303
(g1403
g305
Ntp3197
Rp3198
(dp3199
g1407
g1213
sg1408
g1537
sg329
g1214
sbsS'cerrno'
p3200
g303
(g1403
g305
Ntp3201
Rp3202
(dp3203
g1407
g1415
sg1408
g1416
sg329
S'c:/marmalade/7.3/s3e/h/std/c++/cerrno'
p3204
sbsS'resource.h'
p3205
g303
(g1403
g305
Ntp3206
Rp3207
(dp3208
g1407
g1415
sg1408
g1551
sg329
S'c:/marmalade/7.3/s3e/h/std/sys/resource.h'
p3209
sbsS'clocale'
p3210
g303
(g1403
g305
Ntp3211
Rp3212
(dp3213
g1407
g1415
sg1408
g1416
sg329
S'c:/marmalade/7.3/s3e/h/std/c++/clocale'
p3214
sbsS'pvrtextool.mkf'
p3215
g303
(g1403
g305
Ntp3216
Rp3217
(dp3218
g1407
g1048
sg1408
g1993
sg329
g1046
sbsS'csetjmp'
p3219
g303
(g1403
g305
Ntp3220
Rp3221
(dp3222
g1407
g1415
sg1408
g1416
sg329
S'c:/marmalade/7.3/s3e/h/std/c++/csetjmp'
p3223
sbsS'netdb.h'
p3224
g303
(g1403
g305
Ntp3225
Rp3226
(dp3227
g1407
g1415
sg1408
g1437
sg329
S'c:/marmalade/7.3/s3e/h/std/netdb.h'
p3228
sbsS's3eAndroidJNI.h'
p3229
g303
(g1403
g305
Ntp3230
Rp3231
(dp3232
g1407
g1415
sg1408
g1620
sg329
S'c:/marmalade/7.3/s3e/h/ext/s3eAndroidJNI.h'
p3233
sbsS'stdexcept'
p3234
g303
(g1403
g305
Ntp3235
Rp3236
(dp3237
g1407
g1415
sg1408
g1416
sg329
S'c:/marmalade/7.3/s3e/h/std/c++/stdexcept'
p3238
sbsS'math.h'
p3239
g303
(g1403
g305
Ntp3240
Rp3241
(dp3242
g1407
g1415
sg1408
g1437
sg329
S'c:/marmalade/7.3/s3e/h/std/math.h'
p3243
sbsS'stdbool.h'
p3244
g303
(g1403
g305
Ntp3245
Rp3246
(dp3247
g1407
g1415
sg1408
g1437
sg329
S'c:/marmalade/7.3/s3e/h/std/stdbool.h'
p3248
sbsS'uio.h'
p3249
g303
(g1403
g305
Ntp3250
Rp3251
(dp3252
g1407
g1415
sg1408
g1551
sg329
S'c:/marmalade/7.3/s3e/h/std/sys/uio.h'
p3253
sbsS'IwUncopyable.h'
p3254
g303
(g1403
g305
Ntp3255
Rp3256
(dp3257
g1407
g1277
sg1408
g1444
sg329
g1373
sbssS'juice_build_type'
p3258
g4
sS'tests'
p3259
(lp3260
sS'project_name'
p3261
g311
sS'root_file'
p3262
g121
sS'current_root'
p3263
S'c:/Matz_Stuff/src/BallGame'
p3264
sS'dependencies'
p3265
(lp3266
sS'include_paths'
p3267
(lp3268
S'c:/marmalade/7.3/modules/iwutil/h'
p3269
aS'c:/marmalade/7.3/modules/third_party/libjpeg/h'
p3270
aS'c:/marmalade/7.3/modules/third_party/zlib/h'
p3271
aS'c:/marmalade/7.3/modules/third_party/libpng/h'
p3272
aS'c:/marmalade/7.3/modules/iw2dscenegraphcore/h'
p3273
aS'c:/marmalade/7.3/modules/iw2dscenegraph/h'
p3274
aS'c:/marmalade/7.3/modules/iw2d/h'
p3275
aS'c:/marmalade/7.3/modules/iwgx/h'
p3276
aS'c:/marmalade/7.3/modules/iwgl/h'
p3277
aS'c:/marmalade/7.3/modules/iwgeom/h'
p3278
aS'c:/marmalade/7.3/modules/iwresmanager/h'
p3279
aS'c:/marmalade/7.3/extensions/pvrtextool/h'
p3280
aS'c:/marmalade/7.3/modules/iwgxfont/h'
p3281
aS'c:/marmalade/7.3/modules/third_party/tiniconv/source'
p3282
aS'c:/marmalade/7.3/modules/iwtween/h'
p3283
aS'c:/marmalade/7.3/s3e/h'
p3284
aS'c:/marmalade/7.3/s3e/h/ext'
p3285
aS'c:/marmalade/7.3/s3e/h/std'
p3286
aS'c:/marmalade/7.3/s3e/h/std/c++'
p3287
aS'c:/marmalade/7.3/s3e/h/ext_legacy'
p3288
aS'c:/marmalade/7.3/s3e/h/legacy'
p3289
asS'weak_frameworks'
p3290
(lp3291
sS'extprojects'
p3292
(dp3293
sg567
(dp3294
g561
(lp3295
(g79
S'.'
p3296
I0
tp3297
assS'macro_types'
p3298
(dp3299
g502
I1
sg503
I0
sg504
I0
sg505
I0
sg506
I0
sg507
I0
sg508
I0
sg509
I0
sg510
I0
sg512
I0
sg513
I0
sg514
I0
sg515
I0
sg516
I0
sg518
I0
sg520
I0
sg521
I0
sg522
I0
sg523
I0
sg524
I0
sg525
I1
sg526
I0
sg527
I0
sg528
I0
sg529
I0
sg530
I01
sg531
I1
sg532
I0
sg533
I0
sg534
I0
sg535
I0
sg536
I0
sg538
I0
sg539
I0
ssS'commands'
p3300
(lp3301
sg569
(g962
S'VC12X'
p3302
S'X86ARM'
p3303
tp3304
sS'build_libs'
p3305
(dp3306
sg571
g0
sS'frameworks'
p3307
(lp3308
sS'environ'
p3309
(dp3310
sS'target_name_debug'
p3311
g311
sS'builders'
p3312
(dp3313
g561
(dp3314
S'.S'
p3315
(dp3316
S'rvct'
p3317
(lp3318
S'.obj'
p3319
aS'echo ARM Assembling(RVCT) ${SOURCE}...'
p3320
aS'c:/marmalade/7.3/s3e\\rvct\\bin\\armasm -o ${TARGET} ${SOURCE}'
p3321
asg425
(lp3322
g3319
aS'echo ARM Assembling(GCC) ${SOURCE}...'
p3323
aS'c:/marmalade/7.3/s3e\\gcc\\bin\\arm-none-eabi-gcc -c -o ${TARGET} ${SOURCE}'
p3324
asS'ppu'
p3325
(lp3326
S'.a'
p3327
aS'echo PPU Assembling(SNC) ${SOURCE}...'
p3328
aS'c:/marmalade/7.3/s3e\\rvct\\bin\\armasm -o ${TARGET} ${SOURCE}'
p3329
assS'.s'
p3330
g3316
sS'.vp'
p3331
(lp3332
NaS'"C:/Marmalade/7.3/s3e/python/python.exe" "c:/marmalade/7.3/modules/iwgx/tools/compile_shaders.py" ${SOURCE}'
p3333
asssS'extproject_names'
p3334
(lp3335
sbtp3336
.