((dp0
S'arm_dbg_args'
p1
S'-via:"d:\\src\\marmalade\\BallGame\\build_ballgame_vc12x\\BallGame_vc12x_arm_debug.via" -qemu'
p2
sS'game-icf'
p3
S''
p4
sS'dist'
p5
NsS'csproj'
p6
g4
sS'module_path_append'
p7
NsS'global_path'
p8
S'd:\\src\\marmalade'
p9
sS'system_path'
p10
S'c:\\marmalade\\7.3\\s3e\\makefile_builder'
p11
sS'android_x86_dbg_args'
p12
S'../../tools/DeployTool/DeployTool.exe --dir "d:\\src\\marmalade\\BallGame\\build_ballgame_vc12x"'
p13
sS'no-emit'
p14
NsS'arm-float-abi'
p15
g4
sS'arm_rel_rtsm_args'
p16
S'-via:"d:\\src\\marmalade\\BallGame\\build_ballgame_vc12x\\BallGame_vc12x_arm_release.via" -qemu'
p17
sS'amd64'
p18
NsS'line-width'
p19
I80
sS'gcc_dbg_args'
p20
S'-via:"d:\\src\\marmalade\\BallGame\\build_ballgame_vc12x\\BallGame_vc12x_gcc_debug.via" -qemu'
p21
sS'android-x86'
p22
NsS'x86_dbg_exe'
p23
S'c:/marmalade/7.3/s3e\\win32\\s3e_simulator_debug.exe'
p24
sS'disable-runtime-checks'
p25
NsS'release'
p26
NsS'no-make'
p27
NsS'xcode-x86-build-settings'
p28
g4
sS'optimise-size'
p29
NsS'output-name-debug'
p30
g4
sS'arm-fpu'
p31
g4
sS'proj_name'
p32
S'BallGame_vc12x'
p33
sS'rvct-version'
p34
S'none'
p35
sS'compiler'
p36
g4
sS'execute'
p37
NsS'compile-static'
p38
NsS'msvc-project'
p39
I01
sS'buildenv'
p40
S'VC12X'
p41
sS'quick'
p42
NsS'module_path'
p43
NsS'use-release-std-libs'
p44
NsS'using_perforce'
p45
I00
sS'tizen-x86'
p46
NsS'mips-s3e'
p47
NsS's3e-api-lib-name'
p48
S's3e_api_iwgl'
p49
sS'ios-no-pic'
p50
NsS'shared-arm-lib'
p51
NsS'arm-cpu'
p52
g4
sS'compile-thumb'
p53
NsS'no-ide'
p54
NsS'msvc-version'
p55
S'6.0'
p56
sS'arm'
p57
NsS'builddir'
p58
g4
sS'compile-debug-as-release'
p59
I0
sS'arm-arch'
p60
g4
sS'brief'
p61
NsS'dll'
p62
NsS'buildenv-toolset'
p63
g4
sS'version'
p64
NsS'ccache'
p65
I0
sS'offline'
p66
NsS'ios-version'
p67
g4
sS'hub_data'
p68
g4
sS'fake_vc_call'
p69
NsS'jobs'
p70
I0
sS'linkflags'
p71
NsS'debug'
p72
NsS'xcode-build-order'
p73
g4
sS'gcc_rel_rtsm_args'
p74
S'-via:"d:\\src\\marmalade\\BallGame\\build_ballgame_vc12x\\BallGame_vc12x_gcc_release.via" -qemu'
p75
sS'done_defaults'
p76
I1
sS'path'
p77
NsS's3e-data-dir'
p78
S'd:/src/marmalade/BallGame\\data'
p79
sS'enable-exceptions'
p80
NsS'osx-dll'
p81
NsS'extension'
p82
g4
sS'no-vc6'
p83
NsS'non-interactive'
p84
NsS'win32-console'
p85
NsS'dist-format'
p86
g4
sS's3e-force-arch'
p87
NsS'dump_defines'
p88
NsS'use_prebuilt'
p89
NsS'gcc-version'
p90
g4
sS'x86_dbg_args'
p91
S'-via:"d:\\src\\marmalade\\BallGame\\build_ballgame_vc12x\\BallGame_vc12x_debug.via"'
p92
sS'tizen_x86_dbg_args'
p93
g13
sS'arm-debugger'
p94
g4
sS'use_temp_extension'
p95
NsS'verbose'
p96
I0
sS'log'
p97
NsS'no-strip'
p98
NsS'rebuild'
p99
NsS'win32-simulator-dll'
p100
NsS'strict'
p101
NsS'mips_dbg_args'
p102
g13
sS'enable-global-path'
p103
NsS'cflags'
p104
NsS'dist-dir'
p105
g4
sS'xcode-arm-build-settings'
p106
g4
sS'jflags'
p107
NsS'csprojSDKRefs'
p108
g4
sS'tizen_x86_rel_exe'
p109
S'c:\\marmalade\\7.3\\s3e\\makefile_builder\\tool_launcher.exe'
p110
sS'test-assets'
p111
g4
sS'distcc'
p112
NsS'external-compiler'
p113
NsS'no-distcc'
p114
NsS'preinclude'
p115
NsS'using_sdk'
p116
I01
sS'nologo'
p117
NsS'warn-level'
p118
I2
sS'mips_dbg_exe'
p119
g110
sS'mkb_in'
p120
S'd:/src/marmalade/BallGame/BallGame.mkb'
p121
sS'tizen_x86_dbg_exe'
p122
g110
sS'arm_dbg_exe'
p123
S'c:/marmalade/7.3/s3e\\bin\\armdebug.exe'
p124
sS'csprojDLLRef'
p125
NsS'tizen_x86_rel_args'
p126
g13
sS'android_x86_dbg_exe'
p127
g110
sS'test-config'
p128
g4
sS'list-targets'
p129
NsS'arm_rel_exe'
p130
g110
sS'arm_rel_args'
p131
g13
sS'makedeps'
p132
NsS'android_x86_rel_exe'
p133
g110
sS'default-buildenv'
p134
S'vc12x'
p135
sS'x86_rel_exe'
p136
g24
sS'preprocess-java'
p137
NsS'mips_rel_args'
p138
g13
sS'defines'
p139
NsS'lib'
p140
NsS'global_argv'
p141
(lp142
S'C:\\Marmalade\\7.3\\s3e\\makefile_builder\\mkb.py'
p143
aS'd:/src/marmalade/BallGame/BallGame.mkb'
p144
aS'--buildenv=VC12X'
p145
aS'--default-buildenv=vc12x'
p146
aS'--msvc-project'
p147
asS'make'
p148
NsS'optimise-speed'
p149
NsS'internal'
p150
NsS'enable-stdinc'
p151
NsS'deploy-only'
p152
NsS'x86'
p153
NsS'deploy'
p154
g4
sS'x86_run_exe'
p155
S'c:/marmalade/7.3/s3e\\win32\\s3e_console.exe'
p156
sS'x86_rel_args'
p157
S'-via:"d:\\src\\marmalade\\BallGame\\build_ballgame_vc12x\\BallGame_vc12x_release.via"'
p158
sS'gcc_rel_args'
p159
g13
sS'mips'
p160
NsS'xcode-build-settings'
p161
g4
sS'incredibuild'
p162
NsS'strict-compile'
p163
NsS'use-auto-subdirs'
p164
NsS'mips_rel_exe'
p165
g110
sS'android_x86_rel_args'
p166
g13
sS'app-icf'
p167
g4
sS'deployargs'
p168
NsS'iosnativedebug'
p169
NsS'mkf_in'
p170
(lp171
S'c:\\marmalade\\7.3\\modules\\iwutil\\iwutil.mkf'
p172
aS'c:\\marmalade\\7.3\\modules\\third_party\\libjpeg\\libjpeg.mkf'
p173
aS'c:\\marmalade\\7.3\\modules\\third_party\\libpng\\libpng.mkf'
p174
aS'c:\\marmalade\\7.3\\modules\\third_party\\zlib\\zlib.mkf'
p175
aS'c:\\marmalade\\7.3\\modules\\iw2dscenegraphcore\\iw2dscenegraphcore.mkf'
p176
aS'c:\\marmalade\\7.3\\modules\\iw2dscenegraph\\iw2dscenegraph.mkf'
p177
aS'c:\\marmalade\\7.3\\modules\\iw2d\\iw2d.mkf'
p178
aS'c:\\marmalade\\7.3\\modules\\iwgx\\iwgx.mkf'
p179
aS'c:\\marmalade\\7.3\\modules\\iwgl\\iwgl.mkf'
p180
aS'c:\\marmalade\\7.3\\modules\\iwgeom\\iwgeom.mkf'
p181
aS'c:\\marmalade\\7.3\\modules\\iwresmanager\\iwresmanager.mkf'
p182
aS'c:\\marmalade\\7.3\\extensions\\pvrtextool\\pvrtextool.mkf'
p183
aS'c:\\marmalade\\7.3\\modules\\iwgxfont\\iwgxfont.mkf'
p184
aS'c:\\marmalade\\7.3\\modules\\third_party\\tiniconv\\tiniconv.mkf'
p185
aS'c:\\marmalade\\7.3\\modules\\iwtween\\iwtween.mkf'
p186
asS'strict-mkb'
p187
NsS'executeargs'
p188
NsS'clean'
p189
NsS'no-asm'
p190
NsS'output-name'
p191
g4
sS'no-modules'
p192
NsS'find_define'
p193
g4
s(dp194
S'c:\\marmalade\\7.3\\s3e\\makefile_builder\\templates\\xcode_pbxuser.py'
p195
F1404462948.0
sS'c:\\marmalade\\7.3\\s3e\\makefile_builder\\plugins\\s3e_xcode.pyc'
p196
F1406554690.3000362
sS'c:\\marmalade\\7.3\\s3e\\makefile_builder\\plugins\\osx_scons.pyc'
p197
F1404464240.0
sS'c:\\marmalade\\7.3\\s3e\\makefile_builder\\extensions'
p198
F1406553858.5113974
sS'c:\\marmalade\\7.3\\s3e\\makefile_builder\\templates\\win8_sln.pyc'
p199
F1404464240.0
sS'c:\\marmalade\\7.3\\s3e\\makefile_builder\\plugins\\s3e_wp8.pyc'
p200
F1404464240.0
sS'c:\\marmalade\\7.3\\s3e\\makefile_builder\\mkb_launcher.exe'
p201
F1404463306.0
sS'c:\\marmalade\\7.3\\s3e\\makefile_builder\\plugins\\null.pyc'
p202
F1404464240.0
sS'c:\\marmalade\\7.3\\s3e\\makefile_builder\\plugins\\s3e_web.pyc'
p203
F1404464240.0
sS'c:\\marmalade\\7.3\\s3e\\makefile_builder\\plugins\\SConsEmitter.pyc'
p204
F1404464240.0
sS'c:\\marmalade\\7.3\\s3e\\makefile_builder\\mkb_util.pyc'
p205
F1404464240.0
sS'c:\\marmalade\\7.3\\s3e\\makefile_builder\\templates\\ws8_csproj_user.pyc'
p206
F1404464240.0
sS'c:\\marmalade\\7.3\\s3e\\makefile_builder\\mkb_upstream.pyc'
p207
F1404464240.0
sS'c:\\marmalade\\7.3\\s3e\\makefile_builder\\templates\\win8_csproj.pyc'
p208
F1404464240.0
sS'c:\\marmalade\\7.3\\s3e\\makefile_builder\\docs\\deprecated.options.txt'
p209
F1404462948.0
sS'c:\\marmalade\\7.3\\s3e\\makefile_builder\\templates\\wp8_csproj_user.pyc'
p210
F1404464240.0
sS'c:\\marmalade\\7.3\\s3e\\makefile_builder\\extensions\\make_dist.py'
p211
F1404462948.0
sS'c:\\marmalade\\7.3\\s3e\\makefile_builder\\docs\\deprecated.defines.txt'
p212
F1404462948.0
sS'c:\\marmalade\\7.3\\s3e\\makefile_builder\\templates\\wp8_csproj.pyc'
p213
F1404464240.0
sS'c:\\marmalade\\7.3\\s3e\\makefile_builder\\templates\\vc8_user.pyc'
p214
F1404464240.0
sS'c:\\marmalade\\7.3\\s3e\\makefile_builder\\plugins\\wp8_wp8.pyc'
p215
F1404464240.0
sS'c:\\marmalade\\7.3\\s3e\\makefile_builder\\deployment.pyc'
p216
F1404464240.0
sS'c:\\marmalade\\7.3\\s3e\\makefile_builder\\docs\\mkb.defines.txt'
p217
F1404462948.0
sS'c:\\marmalade\\7.3\\s3e\\makefile_builder\\plugins'
p218
F1406554690.2990348
sS'c:\\marmalade\\7.3\\s3e\\makefile_builder\\templates\\wp8_sln.pyc'
p219
F1404464240.0
sS'c:\\marmalade\\7.3\\s3e\\makefile_builder\\templates\\rvct_linker_script'
p220
F1404462948.0
sS'c:\\marmalade\\7.3\\s3e\\makefile_builder\\mkb_main.pyc'
p221
F1404464240.0
sS'c:\\marmalade\\7.3\\s3e\\makefile_builder\\templates\\win32_vcxproj_filters.pyc'
p222
F1404464240.0
sS'c:\\marmalade\\7.3\\s3e\\makefile_builder\\templates\\xcode4_DeployTool.xcscheme'
p223
F1404462948.0
sS'c:\\marmalade\\7.3\\s3e\\makefile_builder\\plugins\\s3e_ws81.pyc'
p224
F1404464240.0
sS'c:\\marmalade\\7.3\\s3e\\makefile_builder\\templates\\scons.pyc'
p225
F1404464240.0
sS'c:\\marmalade\\7.3\\s3e\\makefile_builder\\templates\\ws8_csproj.pyc'
p226
F1404464240.0
sS'c:\\marmalade\\7.3\\s3e\\makefile_builder\\templates'
p227
F1406553858.5063906
sS'c:\\marmalade\\7.3\\s3e\\makefile_builder\\plugins\\s3e_scons.pyc'
p228
F1404464240.0
sS'c:\\marmalade\\7.3\\s3e\\makefile_builder\\plugins\\XcodeEmitter.py'
p229
F1404462948.0
sS'c:\\marmalade\\7.3\\s3e\\makefile_builder\\templates\\win32_dsp.pyc'
p230
F1404464240.0
sS'c:\\marmalade\\7.3\\s3e\\makefile_builder\\plugins\\s3e_qmake.py'
p231
F1404462948.0
sS'c:\\marmalade\\7.3\\s3e\\makefile_builder\\mkb.py'
p232
F1404462948.0
sS'c:\\marmalade\\7.3\\s3e\\makefile_builder\\templates\\win32_sln.pyc'
p233
F1404464240.0
sS'c:\\marmalade\\7.3\\s3e\\makefile_builder\\plugins\\linux_scons.pyc'
p234
F1404464240.0
sS'c:\\marmalade\\7.3\\s3e\\makefile_builder\\templates\\ws81_ext_csproj.pyc'
p235
F1404464240.0
sS'c:\\marmalade\\7.3\\s3e\\makefile_builder\\templates\\win8_vcxproj.pyc'
p236
F1404464240.0
sS'c:\\marmalade\\7.3\\s3e\\makefile_builder\\templates\\win32_vcxproj.pyc'
p237
F1404464240.0
sS'c:\\marmalade\\7.3\\s3e\\makefile_builder\\templates\\vc7_suo.pyc'
p238
F1404464240.0
sS'c:\\marmalade\\7.3\\s3e\\makefile_builder\\templates\\make.py'
p239
F1404462948.0
sS'c:\\marmalade\\7.3\\s3e\\makefile_builder\\templates\\wp8_vcxproj.pyc'
p240
F1404464240.0
sS'c:\\marmalade\\7.3\\s3e\\makefile_builder\\plugins\\MakeEmitter.pyc'
p241
F1404464240.0
sS'c:\\marmalade\\7.3\\s3e\\makefile_builder\\plugins\\deploy.pyc'
p242
F1404464240.0
sS'c:\\marmalade\\7.3\\s3e\\makefile_builder\\plugins\\VisualStudioEmitter.pyc'
p243
F1404464240.0
sS'c:\\marmalade\\7.3\\s3e\\makefile_builder\\plugins\\ws81_ws81.pyc'
p244
F1404464240.0
sS'c:\\marmalade\\7.3\\s3e\\makefile_builder\\docs\\parse_options.pyc'
p245
F1404464240.0
sS'c:\\marmalade\\7.3\\s3e\\makefile_builder\\templates\\win32_dsw.pyc'
p246
F1404464240.0
sS'c:\\marmalade\\7.3\\s3e\\makefile_builder\\plugins\\s3e_make.pyc'
p247
F1404464240.0
sS'c:\\marmalade\\7.3\\s3e\\makefile_builder\\templates\\ws8_sln.pyc'
p248
F1404464240.0
sS'c:\\marmalade\\7.3\\s3e\\makefile_builder\\templates\\ws81_vcxproj.pyc'
p249
F1404464240.0
sS'c:\\marmalade\\7.3\\s3e\\makefile_builder\\templates\\win8_csproj_user.pyc'
p250
F1404464240.0
sS'c:\\marmalade\\7.3\\s3e\\makefile_builder\\templates\\ws81_ext_sln.pyc'
p251
F1404464240.0
sS'c:\\marmalade\\7.3\\s3e\\makefile_builder\\plugins\\XcodeEmitter.pyc'
p252
F1406554690.1959064
sS'c:\\marmalade\\7.3\\s3e\\makefile_builder\\templates\\mips_linker_script'
p253
F1404462948.0
sS'c:\\marmalade\\7.3\\s3e\\makefile_builder\\docs'
p254
F1406553858.5254142
sS'c:\\marmalade\\7.3\\s3e\\makefile_builder\\templates\\xcode4_arm.xcscheme'
p255
F1404462948.0
sS'c:\\marmalade\\7.3\\s3e\\makefile_builder\\templates\\ws81_csproj.pyc'
p256
F1404464240.0
sS'c:\\marmalade\\7.3\\s3e\\makefile_builder\\templates\\ws8_ext_sln.pyc'
p257
F1404464240.0
sS'c:\\marmalade\\7.3\\s3e\\makefile_builder\\plugins\\Emitter.pyc'
p258
F1404464240.0
sS'c:\\marmalade\\7.3\\s3e\\makefile_builder\\templates\\template.opt'
p259
F1404462948.0
sS'c:\\marmalade\\7.3\\s3e\\makefile_builder\\plugins\\vc6_utils.pyc'
p260
F1404464240.0
sS'c:\\marmalade\\7.3\\s3e\\makefile_builder\\templates\\linker_script'
p261
F1404462948.0
sS'c:\\marmalade\\7.3\\s3e\\makefile_builder\\templates\\xcode4.xcscheme'
p262
F1404462948.0
sS'c:\\marmalade\\7.3\\s3e\\makefile_builder\\plugins\\Win8Emitter.pyc'
p263
F1404464240.0
sS'c:\\marmalade\\7.3\\s3e\\makefile_builder\\templates\\Info.plist'
p264
F1404462948.0
sS'c:\\marmalade\\7.3\\s3e\\makefile_builder\\plugins\\s3e_xcode.py'
p265
F1404462948.0
sS'c:\\marmalade\\7.3\\s3e\\makefile_builder\\docs\\options.txt'
p266
F1404462948.0
sS'c:\\marmalade\\7.3\\s3e\\makefile_builder\\templates\\ws81_csproj_user.pyc'
p267
F1404464240.0
sS'c:\\marmalade\\7.3\\s3e\\makefile_builder\\templates\\qmake.py'
p268
F1404462948.0
sS'c:\\marmalade\\7.3\\s3e\\makefile_builder\\plugins\\win32_vc6.pyc'
p269
F1404464240.0
sS'c:\\marmalade\\7.3\\s3e\\makefile_builder\\plugins\\ws8_ws8.pyc'
p270
F1404464240.0
sS'c:\\marmalade\\7.3\\s3e\\makefile_builder\\plugins\\osx_xcode.pyc'
p271
F1404464240.0
sS'c:\\marmalade\\7.3\\s3e\\makefile_builder\\templates\\ws81_sln.pyc'
p272
F1404464240.0
sS'c:\\marmalade\\7.3\\s3e\\makefile_builder\\templates\\win32_vcproj.pyc'
p273
F1404464240.0
sS'c:\\marmalade\\7.3\\s3e\\makefile_builder\\plugins\\s3e_vc6.pyc'
p274
F1404464240.0
sS'c:\\marmalade\\7.3\\s3e\\makefile_builder\\mkb_option.pyc'
p275
F1404464240.0
sS'c:\\marmalade\\7.3\\s3e\\makefile_builder\\templates\\vc6_opt.pyc'
p276
F1404464240.0
sS'c:\\marmalade\\7.3\\s3e\\makefile_builder\\templates\\win8_ext_csproj.pyc'
p277
F1404464240.0
sS'c:\\marmalade\\7.3\\s3e\\makefile_builder\\plugins\\s3e_win8.pyc'
p278
F1404464240.0
sS'c:\\marmalade\\7.3\\s3e\\makefile_builder\\templates\\template.suo'
p279
F1404462948.0
sS'c:\\marmalade\\7.3\\s3e\\makefile_builder\\templates\\ws8_vcxproj.pyc'
p280
F1404464240.0
sS'c:\\marmalade\\7.3\\s3e\\makefile_builder\\templates\\vc10_user.pyc'
p281
F1404464240.0
sS'c:\\marmalade\\7.3\\s3e\\makefile_builder\\templates\\wp8_ext_csproj.pyc'
p282
F1404464240.0
sS'c:\\marmalade\\7.3\\s3e\\makefile_builder\\plugins\\java.pyc'
p283
F1404464240.0
sS'c:\\marmalade\\7.3\\s3e\\makefile_builder\\templates\\MainWindow.xib'
p284
F1404462948.0
sS'c:\\marmalade\\7.3\\s3e\\makefile_builder\\templates\\qmake_user.py'
p285
F1404462948.0
sS'c:\\marmalade\\7.3\\s3e\\makefile_builder\\plugins\\win8_utils.pyc'
p286
F1404464240.0
sS'c:\\marmalade\\7.3\\s3e\\makefile_builder\\templates\\xcode.py'
p287
F1404462948.0
sS'c:\\marmalade\\7.3\\s3e\\makefile_builder\\mkb_parser.pyc'
p288
F1404464240.0
sS'c:\\marmalade\\7.3\\s3e\\makefile_builder\\plugins\\xcode4_schememanagement.pyc'
p289
F1406554690.2019138
sS'c:\\marmalade\\7.3\\s3e\\makefile_builder\\plugins\\s3e_qmake.pyc'
p290
F1406554690.2679965
sS'c:\\marmalade\\7.3\\s3e\\makefile_builder\\templates\\ws8_ext_csproj.pyc'
p291
F1404464240.0
sS'c:\\marmalade\\7.3\\s3e\\makefile_builder\\plugins\\S3EEmitter.pyc'
p292
F1404464240.0
sS'c:\\marmalade\\7.3\\s3e\\makefile_builder\\plugins\\xcode4_schememanagement.py'
p293
F1404462948.0
sS'c:\\marmalade\\7.3\\s3e\\makefile_builder\\plugins\\s3e_ws8.pyc'
p294
F1404464240.0
sS'c:\\marmalade\\7.3\\s3e\\makefile_builder\\mkb_globals.pyc'
p295
F1404464240.0
sS'c:\\marmalade\\7.3\\s3e\\makefile_builder\\templates\\gdb_start.txt'
p296
F1404462948.0
sS'c:\\marmalade\\7.3\\s3e\\makefile_builder\\docs\\deployment_options.txt'
p297
F1404462946.0
sS'c:\\marmalade\\7.3\\s3e\\makefile_builder\\plugins\\vc7_utils.pyc'
p298
F1404464240.0
sS'c:\\marmalade\\7.3\\s3e\\makefile_builder\\tool_launcher.exe'
p299
F1404463306.0
sS'c:\\marmalade\\7.3\\s3e\\makefile_builder\\plugins\\iphone.pyc'
p300
F1404464240.0
sccopy_reg
_reconstructor
p301
(cmkb_main
MkbFile
p302
c__builtin__
object
p303
Ntp304
Rp305
(dp306
g5
(lp307
sS'target_name'
p308
S'BallGame'
p309
sS'current_file'
p310
g121
sS'package_path'
p311
(lp312
sS'post_build'
p313
(lp314
(lp315
S'c:/marmalade/7.3/s3e/tools'
p316
aS'C:\\Marmalade\\7.3\\s3e\\python\\python.exe .\\process_map.py "$(TargetPath)"'
p317
aa(S'c:\\marmalade\\7.3\\s3e\\bin'
p318
S'"s3e_plink" -l "$(TargetPath)" '
p319
g153
tp320
asS'librarys'
p321
(lp322
g301
(cmkb_main
Library
p323
g303
Ntp324
Rp325
(dp326
S'name'
p327
S'vc6_compat.lib'
p328
sS'expand_name'
p329
I00
sS'include_spec_rvct_objs'
p330
(lp331
sS'include_all_objs'
p332
I00
sS'share_arm'
p333
I00
sS'arch'
p334
S'x86'
p335
sS'nodebug'
p336
I00
sg36
Nsbag301
(g323
g303
Ntp337
Rp338
(dp339
g327
S'iwutil'
p340
sg329
I01
sg330
(lp341
sg332
Nsg333
Nsg334
Nsg336
I00
sg36
Nsbag301
(g323
g303
Ntp342
Rp343
(dp344
g327
S'jpeg'
p345
sg329
I01
sg330
g341
sg332
Nsg333
Nsg334
Nsg336
I00
sg36
Nsbag301
(g323
g303
Ntp346
Rp347
(dp348
g327
S'z'
p349
sg329
I01
sg330
g341
sg332
Nsg333
Nsg334
Nsg336
I00
sg36
Nsbag301
(g323
g303
Ntp350
Rp351
(dp352
g327
S'png'
p353
sg329
I01
sg330
g341
sg332
Nsg333
Nsg334
Nsg336
I00
sg36
Nsbag301
(g323
g303
Ntp354
Rp355
(dp356
g327
S'iw2d'
p357
sg329
I01
sg330
g341
sg332
Nsg333
Nsg334
Nsg336
I00
sg36
Nsbag301
(g323
g303
Ntp358
Rp359
(dp360
g327
S'ATI_Compress_MT_VC7.lib'
p361
sg329
I00
sg330
g341
sg332
Nsg333
Nsg334
S'x86'
p362
sg336
I00
sg36
Nsbag301
(g323
g303
Ntp363
Rp364
(dp365
g327
S'iwgx'
p366
sg329
I01
sg330
g341
sg332
Nsg333
Nsg334
Nsg336
I00
sg36
Nsbag301
(g323
g303
Ntp367
Rp368
(dp369
g327
S'iwgl'
p370
sg329
I01
sg330
g341
sg332
Nsg333
Nsg334
Nsg336
I00
sg36
Nsbag301
(g323
g303
Ntp371
Rp372
(dp373
g327
S'iwgeom'
p374
sg329
I01
sg330
g341
sg332
Nsg333
Nsg334
Nsg336
I00
sg36
Nsbag301
(g323
g303
Ntp375
Rp376
(dp377
g327
S'iwresmanager'
p378
sg329
I01
sg330
g341
sg332
Nsg333
Nsg334
Nsg336
I00
sg36
Nsbag301
(g323
g303
Ntp379
Rp380
(dp381
g327
S'iwgxfont'
p382
sg329
I01
sg330
g341
sg332
Nsg333
Nsg334
Nsg336
I00
sg36
Nsbag301
(g323
g303
Ntp383
Rp384
(dp385
g327
S'tiniconv'
p386
sg329
I01
sg330
g341
sg332
Nsg333
Nsg334
Nsg336
I00
sg36
Nsbag301
(g323
g303
Ntp387
Rp388
(dp389
g327
S's3e_cpp'
p390
sg329
I01
sg330
g331
sg332
I00
sg333
I00
sg334
Nsg336
I00
sg36
Nsbag301
(g323
g303
Ntp391
Rp392
(dp393
g327
S's3e'
p394
sg329
I01
sg330
(lp395
S'iwcrt.o'
p396
asg332
I00
sg333
I00
sg334
Nsg336
I00
sg36
Nsbag301
(g323
g303
Ntp397
Rp398
(dp399
g327
g49
sg329
I01
sg330
g331
sg332
I00
sg333
I00
sg334
S'x86'
p400
sg336
I01
sg36
Nsbag301
(g323
g303
Ntp401
Rp402
(dp403
g327
g49
sg329
I01
sg330
g331
sg332
I00
sg333
I00
sg334
S'!x86'
p404
sg336
I01
sg36
Nsbag301
(g323
g303
Ntp405
Rp406
(dp407
g327
S'stdc++'
p408
sg329
I00
sg330
g331
sg332
I00
sg333
I00
sg334
S'mips'
p409
sg336
I00
sg36
Nsbag301
(g323
g303
Ntp410
Rp411
(dp412
g327
S'c'
p413
sg329
I00
sg330
g331
sg332
I00
sg333
I00
sg334
S'mips'
p414
sg336
I00
sg36
Nsbag301
(g323
g303
Ntp415
Rp416
(dp417
g327
S'm'
p418
sg329
I00
sg330
g331
sg332
I00
sg333
I00
sg334
S'mips'
p419
sg336
I00
sg36
Nsbag301
(g323
g303
Ntp420
Rp421
(dp422
g327
S'gcc'
p423
sg329
I00
sg330
g331
sg332
I00
sg333
I00
sg334
S'mips'
p424
sg336
I00
sg36
Nsbag301
(g323
g303
Ntp425
Rp426
(dp427
g327
S'stdc++'
p428
sg329
I00
sg330
g331
sg332
I00
sg333
I00
sg334
S'gcc_x86_android'
p429
sg336
I00
sg36
Nsbag301
(g323
g303
Ntp430
Rp431
(dp432
g327
g413
sg329
I00
sg330
g331
sg332
I00
sg333
I00
sg334
S'gcc_x86_android'
p433
sg336
I00
sg36
Nsbag301
(g323
g303
Ntp434
Rp435
(dp436
g327
g418
sg329
I00
sg330
g331
sg332
I00
sg333
I00
sg334
S'gcc_x86_android'
p437
sg336
I00
sg36
Nsbag301
(g323
g303
Ntp438
Rp439
(dp440
g327
g423
sg329
I00
sg330
g331
sg332
I00
sg333
I00
sg334
S'gcc_x86_android'
p441
sg336
I00
sg36
NsbasS'library_paths'
p442
(lp443
g301
(cmkb_main
LibraryPath
p444
g303
Ntp445
Rp446
(dp447
S'expand_path'
p448
I01
sg327
S'c:/marmalade/7.3/modules/iwutil'
p449
sbag301
(g444
g303
Ntp450
Rp451
(dp452
g448
I01
sg327
S'c:/marmalade/7.3/modules/third_party/libjpeg'
p453
sbag301
(g444
g303
Ntp454
Rp455
(dp456
g448
I01
sg327
S'c:/marmalade/7.3/modules/third_party/zlib'
p457
sbag301
(g444
g303
Ntp458
Rp459
(dp460
g448
I01
sg327
S'c:/marmalade/7.3/modules/third_party/libpng'
p461
sbag301
(g444
g303
Ntp462
Rp463
(dp464
g448
I01
sg327
S'c:/marmalade/7.3/modules/iw2d'
p465
sbag301
(g444
g303
Ntp466
Rp467
(dp468
g448
I00
sg327
S'c:/marmalade/7.3/modules/iwgx/atitools'
p469
sbag301
(g444
g303
Ntp470
Rp471
(dp472
g448
I01
sg327
S'c:/marmalade/7.3/modules/iwgx'
p473
sbag301
(g444
g303
Ntp474
Rp475
(dp476
g448
I01
sg327
S'c:/marmalade/7.3/modules/iwgl'
p477
sbag301
(g444
g303
Ntp478
Rp479
(dp480
g448
I01
sg327
S'c:/marmalade/7.3/modules/iwgeom'
p481
sbag301
(g444
g303
Ntp482
Rp483
(dp484
g448
I01
sg327
S'c:/marmalade/7.3/modules/iwresmanager'
p485
sbag301
(g444
g303
Ntp486
Rp487
(dp488
g448
I01
sg327
S'c:/marmalade/7.3/modules/iwgxfont'
p489
sbag301
(g444
g303
Ntp490
Rp491
(dp492
g448
I01
sg327
S'c:/marmalade/7.3/modules/third_party/tiniconv'
p493
sbag301
(g444
g303
Ntp494
Rp495
(dp496
g448
I01
sg327
S'c:/marmalade/7.3/s3e'
p497
sbasS'macros'
p498
(dp499
S'IW_USE_CALLSTACK'
p500
NsS'IW_MKF_IWGEOM'
p501
NsS'I3D_PLATFORM_S3E'
p502
NsS'IW_MKF_IW2DSCENEGRAPHCORE'
p503
NsS'IW_MKF_LIBJPEG'
p504
NsS'I3D_OS_S3E'
p505
NsS'IW_MKF_PVRTEXTOOL'
p506
NsS'IW_MKF_TINICONV'
p507
NsS'IW_APP_VERSION'
p508
S'"1.0"'
p509
sS'__S3E__'
p510
NsS'IW_MKF_IWRESMANAGER'
p511
NsS'IW_MKF_IWUTIL'
p512
NsS'IW_PLATFORM_S3E'
p513
NsS'IW_ASSERTION_CHANNEL_2D'
p514
S'1'
p515
sS'IW_APP_NAME'
p516
S'"BallGame"'
p517
sS'IW_MKF_IWGXFONT'
p518
NsS'IW_MKF_IWTWEEN'
p519
NsS'IW_MKF_ZLIB'
p520
NsS'IW_MKF_IWGX'
p521
NsS'IW_MKF_IW2DSCENEGRAPH'
p522
NsS'IW_USE_ASSERTIONS'
p523
NsS'_CRT_SECURE_NO_DEPRECATE'
p524
NsS'IW_MKF_IWGL'
p525
NsS'IW_MKF_LIBPNG'
p526
NsS'IW_TRACE_CHANNEL_IW_2DSCENEGRAPH'
p527
g515
sS'IW_DEBUG'
p528
NsS'IW_USE_TRACING'
p529
NsS'IW_ASSERTION_CHANNEL_IW_2DSCENEGRAPH'
p530
g515
sS'IW_TRACE_CHANNEL_PVRTEXTOOL'
p531
g515
sS'IW_SDK'
p532
NsS'S3E_INCLUDE_LEGACY'
p533
NsS'IW_TRACE_CHANNEL_PVRTEXTOOL_VERBOSE'
p534
S'2'
p535
sS'IW_MKF_IW2D'
p536
NsS'IW_ASSERTION_CHANNEL_PVRTEXTOOL'
p537
g515
ssS'done_warnings'
p538
(dp539
sS'subprojects'
p540
(dp541
g184
S'iwgxfont'
p542
sg176
S'iw2dscenegraphcore'
p543
sg186
S'iwtween'
p544
sg174
S'libpng'
p545
sg173
S'libjpeg'
p546
sg183
S'PVRTexTool'
p547
sg181
S'iwgeom'
p548
sg179
S'iwgx'
p549
sg178
S'iw2d'
p550
sg185
S'tiniconv'
p551
sg180
S'iwgl'
p552
sg172
S'iwutil'
p553
sg182
S'iwresmanager'
p554
sg175
S'zlib'
p555
sg177
S'iw2dscenegraph'
p556
ssS'deployments'
p557
(dp558
S'Default'
p559
g301
(cdeployment
Deployment
p560
g303
Ntp561
Rp562
(dp563
S'got_version'
p564
I0
sS'assets'
p565
g559
sS'mkb'
p566
g305
sS'target'
p567
Nsg334
(lp568
sS'options'
p569
(dp570
S'iphone-link-lib'
p571
(lp572
sS'game-icf'
p573
NsS'android-tm'
p574
NsS'winmobile-icon32'
p575
NsS'ws8-logo-image150x150'
p576
NsS'ws81-product-version'
p577
NsS'osx-ext-dll'
p578
(lp579
S'c:/marmalade/7.3/extensions/pvrtextool/lib/osx/libPVRTexTool.dylib'
p580
asS'iphone-provisioning-profile'
p581
NsS'ws8-splash-screen-image620x300'
p582
NsS'ws8-ext-capabilities'
p583
(lp584
sS'android-icon-hdpi'
p585
NsS'brew-icon-large'
p586
NsS'iphone-splash-full-orient'
p587
NsS'wp8-tile-fliptemplate-supports-large'
p588
NsS'iphone-show-status-bar'
p589
NsS'roku-requires-mkv'
p590
NsS'long-caption'
p591
NsS'android-pkgname'
p592
NsS'blackberry-permissions-read-device-identifying-information'
p593
NsS'ws81-certificate-end-date'
p594
NsS'psp-dlgcontentid'
p595
NsS'target-folder'
p596
NsS'tizen-dist1-CA-path'
p597
NsS'symbian-icon2-format'
p598
NsS'iphone-region'
p599
NsS'uiq3-icon3-mask'
p600
NsS'brew-encoding'
p601
NsS'android-x86'
p602
NsS'nds-initialcode'
p603
NsS'iphone-persistent-wifi'
p604
NsS'psp-snd0'
p605
NsS'osx-signing-identity-inst'
p606
NsS'winmobile-install-folder'
p607
NsS'android-external-res'
p608
(lp609
sS'ws8-product-version'
p610
NsS'brew-priviledges'
p611
NsS'iphone-icon-ipad-search'
p612
NsS'iphone-icon-ipad'
p613
NsS'roku-icon-focus-hd'
p614
NsS'roku-hidden'
p615
NsS'psp-titlename'
p616
NsS'symbian-icon1-mask'
p617
NsS'psp-parentallevel'
p618
NsS'splashscreen-use-all'
p619
NsS'wp8-author'
p620
NsS'symbian-disable-ecompxl'
p621
NsS'splashscreen-auto-onblack'
p622
NsS'ws81-ext-capabilities'
p623
(lp624
sS'iphone-development-key'
p625
NsS'winmobile-icon48'
p626
NsS'android-unsigned'
p627
NsS'osx-appstore-category'
p628
NsS'version-revision'
p629
NsS'roku-icon-focus-sd'
p630
NsS'android-keystore'
p631
NsS'winmobile-png90'
p632
NsS'iphone-icon-ipad-high-res'
p633
NsS'iphone-disable-ipad'
p634
NsS'wp8-product-id'
p635
NsS'ws81-splash-screen-background'
p636
NsS'wp8-ext-capabilities'
p637
(lp638
sS'iphone-ipad-only'
p639
NsS'symbian-icon1-mask-black'
p640
NsS'iphone-bundle-localisations'
p641
NsS'winmobile-png60'
p642
NsS'blackberry-permissions-access-shared'
p643
NsS'blackberry-author'
p644
NsS'android-icon-xxxhdpi'
p645
NsS'olddeploytoolstyle'
p646
NsS'android_icon_gallery'
p647
NsS'winmobile-cab-compress'
p648
NsS'ws81-ext-managed-dll'
p649
(lp650
sS'win32-icon'
p651
NsS'symbian-key'
p652
NsS'app-icf'
p653
NsS'blackberry-storepass'
p654
NsS'wp8-tile-fliptemplate-back-title'
p655
NsS'brew-compress-loader'
p656
NsS'win32-pref-windowposy'
p657
NsS'win32-pref-windowposx'
p658
NsS'roku-requires-audiometadata'
p659
NsS'wp8-exclude-low-mem'
p660
NsS'wp8-tile-fliptemplate-title'
p661
NsS'iphone-icon-ipad-search-high-res'
p662
NsS'iphone-link-libdir'
p663
(lp664
sS'blackberry-permissions-read-geolocation'
p665
NsS'ws81-ext-device-capabilities'
p666
(lp667
sS'tizen-signed'
p668
NsS'android-extra-application-manifest'
p669
(lp670
sS'ws8-ext-native-dll'
p671
(lp672
sS'symbian-icon2-mask'
p673
NsS'iphone-backgroundmode-audio'
p674
NsS'webos-memory'
p675
NsS'android-keypass'
p676
NsS'name'
p677
NsS'uiq3-icon2-format'
p678
NsS'roku-splash-screen-sd'
p679
NsS'auto-derbh'
p680
NsS'roku-icon-side-sd'
p681
NsS'symbian-maxheapsize'
p682
NsS'nds-publicsavedatasize'
p683
NsS'splashscreen'
p684
NsS'brew-mif'
p685
NsS'iphone-icon-settings-high-res'
p686
NsS'android-manifest'
p687
NsS'ws81-splash-screen-image620x300'
p688
NsS's3e-compression'
p689
NsS'tizen-author-password'
p690
NsS'wp8-tile-fliptemplate-back-content'
p691
NsS'symbian-icon1'
p692
NsS'symbian-icon2'
p693
NsS'android-extra-styles-file'
p694
NsS'nds-bannertitle-jp'
p695
NsS'osx-sign-for-store'
p696
NsS'symbian7-uid'
p697
NsS'wp8-tile-fliptemplate-large-back-content'
p698
NsS'nds-bannertitle-cn'
p699
NsS'iphone-distribution-key'
p700
NsS'android-icon-gallery'
p701
NsS'blackberry-keystore'
p702
NsS'iphone-nosign'
p703
NsS'caption'
p704
NsS'android-extra-manifest'
p705
(lp706
sS'android-icon-xxhdpi'
p707
NsS'version-minor'
p708
NsS'iphone-link-libdirs'
p709
(lp710
sS'iphone-icon-large'
p711
NsS'symbian-keypwd'
p712
NsS'symbian8-uid'
p713
NsS'symbian-cert-key'
p714
NsS'winmobile-ampd-part-number'
p715
NsS'arch'
p716
NsS'nds-romheadertemplate'
p717
NsS'webos-icon'
p718
NsS'psp-dlgprotectdocument'
p719
NsS'ws8-splash-screen-background'
p720
NsS'android-icon-mdpi'
p721
NsS'nds-icon'
p722
NsS'ws8-custom-manifest-fill'
p723
NsS'iphone-development-cert'
p724
NsS'blackberry-phone-icon'
p725
NsS'iphone-enable-4inch-retina'
p726
NsS'ws8-custom-manifest'
p727
NsS'version-major'
p728
NsS'wp8-genre-isgame'
p729
NsS'uiq3-uid'
p730
NsS'iphone-splash-retina-generate'
p731
NsS'tizen-hw-acceleration'
p732
NsS'iphone_bundle_localisations'
p733
NsS'tizen-dist1-key'
p734
NsS'wp8-custom-manifest'
p735
NsS'nds-bannertitle-ge'
p736
NsS'iphone-sign-for-distribution'
p737
NsS'wp8-tile-fliptemplate-medium-back-image'
p738
NsS'wp8-publisher-id'
p739
NsS'icon'
p740
NsS'wp8-exclude-wxga'
p741
NsS'uiq3-icon2-mask'
p742
NsS'iphone-splashscreen-portrait'
p743
NsS'iphone-icon-high-res'
p744
NsS'ws81-distribution-pfx-password'
p745
NsS'playbook-author'
p746
NsS'android-icon-xhdpi'
p747
NsS'linux-ext-lib'
p748
(lp749
sS'blackberry-permissions-access-internet'
p750
NsS'wp8-exclude-720p'
p751
NsS'lgtv-use-drm'
p752
NsS'symbian-platsecflags'
p753
NsS'ws8-description'
p754
NsS'blackberry-playbook-icon'
p755
NsS'copyright'
p756
NsS'win32-gles-directory'
p757
NsS'version'
p758
NsS'ws81-logo-image150x150'
p759
NsS'tizen-project-url'
p760
NsS'symbian-icon-svg'
p761
NsS'android-aliasname'
p762
NsS'psp-dlgmanual'
p763
NsS'brew-uid'
p764
NsS'symbian-locationsupport'
p765
NsS'ws8-ext-managed-dll'
p766
(lp767
sS'ws81-ext-sdk-ref-file'
p768
(lp769
sS'nds-bannertitle-it'
p770
NsS'ws8-ext-sdk-manifest-part'
p771
(lp772
sS'uiq3-icon1-mask'
p773
NsS'winmobile-icon16'
p774
NsS'ws8-product-name'
p775
NsS'blackberry-cskpass'
p776
NsS'winmobile-start-menu-folder'
p777
NsS'brew-clsid'
p778
NsS'roku-requires-bluetooth'
p779
NsS'ws8-ext-device-capabilities'
p780
(lp781
sS'blackberry-permissions-use-camera'
p782
NsS'iphone-prerendered-icon'
p783
NsS'iphone-appid'
p784
NsS'ws8-identity-name'
p785
NsS'tizen-dist2-CA-path'
p786
NsS'winmobile-icon64'
p787
NsS'blackberry-permissions-post-notification'
p788
NsS'winmobile-setup-dll'
p789
NsS'android-external-jars'
p790
(lp791
sS'symbian9-uid'
p792
NsS'iphone-icon-ipad-ios7'
p793
NsS'winmobile-trace-file'
p794
NsS'roku-splash-color'
p795
NsS'psp-appversion'
p796
NsS'ws8-publisher-id'
p797
NsS'android-supports-gl-texture'
p798
(lp799
sS'winmobile-png45'
p800
NsS'android-storepass'
p801
NsS'osx-signing-identity-app'
p802
NsS'android-custom-activity'
p803
NsS'psp-discversion'
p804
NsS'psp-copyright'
p805
NsS'embed-icf'
p806
NsS'tizen-manifest'
p807
NsS'osx-icon'
p808
NsS'webos-appinfo'
p809
NsS'psp-dlghealthwarning'
p810
NsS'webos-appid'
p811
NsS'roku-icon-side-hd'
p812
NsS'iphone-icon-ipad-search-high-res-ios7'
p813
NsS'ws81-ext-sdk-manifest-part'
p814
(lp815
sS'loader_name_prefix'
p816
NsS'nds-titlename'
p817
NsS'ws81-logo-image50x50'
p818
NsS'osx-entitlements-plist'
p819
NsS'psp-dlgicon0'
p820
NsS'winmobile-nouninstall'
p821
NsS'psp-discid'
p822
NsS'tizen-dist2-password'
p823
NsS'ws8-ext-sdk-ref'
p824
(lp825
sS'iphone-extra-string'
p826
(lp827
sS'version-string'
p828
NsS'iphone-icon-high-res-ios7'
p829
NsS'blackberry-permissions-record-audio'
p830
NsS'ws8-certificate-end-date'
p831
NsS'tizen-so'
p832
(lp833
sS'wp8-tile-fliptemplate-small-image'
p834
NsS'pkguid-as-uid'
p835
NsS'iphone-signing-identity'
p836
NsS'roku-persist-quota'
p837
NsS'nds-bannertitle-fr'
p838
NsS'ws8-distribution-pfx'
p839
NsS'ws8-publisher-display-name'
p840
NsS'brew-icon-small'
p841
NsS'psp-dlgpic2'
p842
NsS'psp-dlgpic0'
p843
NsS'psp-pic0'
p844
NsS'psp-pic1'
p845
NsS'psp-icon0'
p846
NsS'psp-icon1'
p847
NsS'ws81-identity-name'
p848
NsS'winmobile-icon'
p849
NsS'iphone-no-splash'
p850
NsS'iphone-splash'
p851
NsS'iphone-app-fonts'
p852
NsS'wp8-ext-native-dll'
p853
(lp854
sS'ws81-distribution-cer'
p855
NsS'uiq3-icon2'
p856
NsS'uiq3-icon3'
p857
NsS'uiq3-icon1'
p858
NsS'uiq3-icon1-format'
p859
NsS'ws8-logo-image50x50'
p860
NsS'symbian-icon2-mask-black'
p861
NsS'symbian-run-on-install'
p862
NsS'ws81-publisher-display-name'
p863
NsS'ws81-custom-manifest-fill'
p864
NsS'symbian-soundrecordsupport'
p865
NsS'nds-bannertitle-sp'
p866
NsS'psp-producer'
p867
NsS'iphone-apple-wwdr-cert'
p868
NsS'android-icon-nonstandard'
p869
NsS'win32-pref-processtitle'
p870
NsS'nds-bannertitle-hn'
p871
NsS'tizen-dist2-key'
p872
NsS'brew-depends'
p873
NsS'ws81-custom-manifest'
p874
NsS'iphone-icon-ipad-search-ios7'
p875
NsS'brew-icon-medium'
p876
NsS'iphone-bundle-url-name'
p877
NsS'wp8-tile-fliptemplate-large-front-image'
p878
NsS'tizen-dist2-CA-root-path'
p879
NsS'ws81-description'
p880
NsS'uiq3-icon3-format'
p881
NsS'ws81-logo-image30x30'
p882
NsS'iphone-signing-host'
p883
NsS'tizen-icon'
p884
NsS'osx-info-plist'
p885
NsS'symbian-icon1-format'
p886
NsS'ws81-distribution-pfx'
p887
NsS'blackberry-authorid'
p888
NsS'ws81-publisher-id'
p889
NsS'ws81-ext-sdk-ref'
p890
(lp891
sS'wp8-description'
p892
NsS'iphone-link-opts'
p893
(lp894
sS'roku-splash-min-time'
p895
NsS'wp8-tile-fliptemplate-medium-front-image'
p896
NsS'provider'
p897
NsS'playbook-keystore'
p898
NsS'tizen-appid'
p899
NsS'tizen-author-key'
p900
NsS'symbian-osexecsupport'
p901
NsS'android-install-location'
p902
NsS'nds-privatesavedatasize'
p903
NsS'playbook-storepass'
p904
NsS'android-icon-ldpi'
p905
NsS'manufacturer'
p906
NsS'itunes-artwork'
p907
NsS'iphone-extra-sections'
p908
NsS'ws81-product-name'
p909
NsS'ws81-ext-native-dll'
p910
(lp911
sS'iphone-info-plist'
p912
NsS'ws8-distribution-pfx-password'
p913
NsS'ws8-logo-image30x30'
p914
NsS'wp8-ext-managed-dll'
p915
(lp916
sS'iphone-splashscreen-landscape'
p917
NsS'nds-makercode'
p918
NsS'priv-sign-key'
p919
NsS'networking'
p920
NsS'android-icon'
p921
NsS'iphone-icon-settings'
p922
NsS'iphone-distribution-cert'
p923
NsS'android_extra_strings'
p924
NsS'nds-bannertitle-en'
p925
NsS'playbook-cskpass'
p926
NsS'android-so'
p927
(lp928
sS'wp8-higher-mem'
p929
NsS'roku-splash-screen-hd'
p930
NsS'iphone-bundle-url-schemes'
p931
NsS'roku-screensaver-private'
p932
NsS'osx-extra-res'
p933
(lp934
sS'playbook-icon'
p935
NsS'uid'
p936
NsS'playbook-authorid'
p937
NsS'win32-pref-windowtitle'
p938
NsS'tizen-dist1-password'
p939
NsS'roku-screensaver-title'
p940
NsS'osx-minimum-osx-version'
p941
NsS'symbian-cert'
p942
NsS'iphone-icon'
p943
NsS'win32-ext-dll'
p944
(lp945
S'c:/marmalade/7.3/extensions/pvrtextool/lib/win32/PVRTexTool.dll'
p946
asS'ws8-distribution-cer'
p947
NsS'playbook-access-shared'
p948
NsS'iphone-icon-ipad-high-res-ios7'
p949
NsS'iphone-link-libs'
p950
(lp951
sS'wp8-exclude-wvga'
p952
NsS'assets'
p953
NsS'wp8-tile-fliptemplate-large-back-image'
p954
NsS'wp8-custom-manifest-fill'
p955
NsS'pub-sign-key'
p956
NsS'android-extra-strings'
p957
NsS'tizen-author-CA-path'
p958
Nssg327
g559
sbssS'platform'
p959
S'S3E'
p960
sg64
S'1.0'
p961
sS'arcade_platform'
p962
g4
sS'extensions'
p963
(dp964
sS'source_groups_tree'
p965
(dp966
S'build_ballgame_vc12x'
p967
(dp968
S'd:/src/marmalade/BallGame/build_ballgame_vc12x/Ball.cpp'
p969
(lp970
I1
a(dp971
asS'd:/src/marmalade/BallGame/build_ballgame_vc12x/Ball.h'
p972
(lp973
I1
ag971
assS'(libjpeg)'
p974
(dp975
S'h'
p976
(dp977
S'c:/marmalade/7.3/modules/third_party/libjpeg/h/jpeglib.h'
p978
(lp979
I1
a(dp980
asS'c:/marmalade/7.3/modules/third_party/libjpeg/h/jmemsys.h'
p981
(lp982
I1
ag980
asS'c:/marmalade/7.3/modules/third_party/libjpeg/h/jerror.h'
p983
(lp984
I1
ag980
asS'c:/marmalade/7.3/modules/third_party/libjpeg/h/cdjpeg.h'
p985
(lp986
I1
ag980
asS'c:/marmalade/7.3/modules/third_party/libjpeg/h/transupp.h'
p987
(lp988
I1
ag980
asS'c:/marmalade/7.3/modules/third_party/libjpeg/h/jconfig.h'
p989
(lp990
I1
ag980
asS'c:/marmalade/7.3/modules/third_party/libjpeg/h/jdhuff.h'
p991
(lp992
I1
ag980
asS'c:/marmalade/7.3/modules/third_party/libjpeg/h/jdct.h'
p993
(lp994
I1
ag980
asS'c:/marmalade/7.3/modules/third_party/libjpeg/h/cderror.h'
p995
(lp996
I1
ag980
asS'c:/marmalade/7.3/modules/third_party/libjpeg/h/jmorecfg.h'
p997
(lp998
I1
ag980
asS'c:/marmalade/7.3/modules/third_party/libjpeg/h/jinclude.h'
p999
(lp1000
I1
ag980
asS'c:/marmalade/7.3/modules/third_party/libjpeg/h/jchuff.h'
p1001
(lp1002
I1
ag980
asS'c:/marmalade/7.3/modules/third_party/libjpeg/h/jpegint.h'
p1003
(lp1004
I1
ag980
asS'c:/marmalade/7.3/modules/third_party/libjpeg/h/jversion.h'
p1005
(lp1006
I1
ag980
assS'c:/marmalade/7.3/modules/third_party/libjpeg/libjpeg.mkf'
p1007
(lp1008
I1
a(dp1009
assS'(tiniconv)'
p1010
(dp1011
S'c:/marmalade/7.3/modules/third_party/tiniconv/tiniconv.mkf'
p1012
(lp1013
I1
a(dp1014
asS'c:/marmalade/7.3/modules/third_party/tiniconv/source/tiniconv_int.h'
p1015
(lp1016
I1
a(dp1017
asS'c:/marmalade/7.3/modules/third_party/tiniconv/source/tiniconv.h'
p1018
(lp1019
I1
ag1017
assS'(libpng)'
p1020
(dp1021
g976
(dp1022
S'c:/marmalade/7.3/modules/third_party/libpng/h/pngconf.h'
p1023
(lp1024
I1
a(dp1025
asS'c:/marmalade/7.3/modules/third_party/libpng/h/png.h'
p1026
(lp1027
I1
ag1025
assS'c:/marmalade/7.3/modules/third_party/libpng/libpng.mkf'
p1028
(lp1029
I1
a(dp1030
assS'Extensions'
p1031
(dp1032
S'PVRTexTool'
p1033
(dp1034
S'c:/marmalade/7.3/extensions/pvrtextool/h/PVRTexTool.h'
p1035
(lp1036
I1
a(dp1037
asS'interface'
p1038
(dp1039
S'c:/marmalade/7.3/extensions/pvrtextool/interface/PVRTexTool_interface.cpp'
p1040
(lp1041
I1
ag1037
asS'c:/marmalade/7.3/extensions/pvrtextool/interface/PVRTexTool.defines.txt'
p1042
(lp1043
I1
ag1037
assS'c:/marmalade/7.3/extensions/pvrtextool/pvrtextool.mkf'
p1044
(lp1045
I1
a(dp1046
asssS'd:/src/marmalade/BallGame/BallGame.cpp'
p1047
(lp1048
I1
ag971
asS"'Marmalade Studio'"
p1049
(dp1050
S'iw2dscenegraph'
p1051
(dp1052
S'c:/marmalade/7.3/modules/iw2dscenegraph/iw2dscenegraph.mkf'
p1053
(lp1054
I1
a(dp1055
asS'c:/marmalade/7.3/modules/iw2dscenegraph/docs/iw2dscenegraph.defines.txt'
p1056
(lp1057
I1
a(dp1058
asS'c:/marmalade/7.3/modules/iw2dscenegraph/source/Iw2DSceneGraph.cpp'
p1059
(lp1060
I1
ag1058
asS'c:/marmalade/7.3/modules/iw2dscenegraph/h/Iw2DSceneGraph.h'
p1061
(lp1062
I1
ag1058
assS'iwgl'
p1063
(dp1064
S'c:/marmalade/7.3/modules/iwgl/h/IwGL.h'
p1065
(lp1066
I1
a(dp1067
asS'c:/marmalade/7.3/modules/iwgl/iwgl.mkf'
p1068
(lp1069
I1
a(dp1070
asS'c:/marmalade/7.3/modules/iwgl/h/IwGLExt.h'
p1071
(lp1072
I1
ag1067
asS'c:/marmalade/7.3/modules/iwgl/docs/iwgl.config.txt'
p1073
(lp1074
I1
ag1067
assS'iw2d'
p1075
(dp1076
S'c:/marmalade/7.3/modules/iw2d/iw2d.mkf'
p1077
(lp1078
I1
a(dp1079
asS'c:/marmalade/7.3/modules/iw2d/h/Iw2D.h'
p1080
(lp1081
I1
a(dp1082
asS'c:/marmalade/7.3/modules/iw2d/docs/iw2d_public.defines.txt'
p1083
(lp1084
I1
ag1082
asS'c:/marmalade/7.3/modules/iw2d/docs/iw2d.config.txt'
p1085
(lp1086
I1
ag1082
assS'iwgxfont'
p1087
(dp1088
S'c:/marmalade/7.3/modules/iwgxfont/h/IwGxFont.h'
p1089
(lp1090
I1
a(dp1091
asS'c:/marmalade/7.3/modules/iwgxfont/h/IwGxFontPreparedData.h'
p1092
(lp1093
I1
ag1091
asS'c:/marmalade/7.3/modules/iwgxfont/iwgxfont.mkf'
p1094
(lp1095
I1
a(dp1096
asS'c:/marmalade/7.3/modules/iwgxfont/docs/iwgxfont.config.txt'
p1097
(lp1098
I1
ag1091
asS'c:/marmalade/7.3/modules/iwgxfont/docs/iwgxfont_public.defines.txt'
p1099
(lp1100
I1
ag1091
asS'c:/marmalade/7.3/modules/iwgxfont/h/IwGxFontState.h'
p1101
(lp1102
I1
ag1091
asS'c:/marmalade/7.3/modules/iwgxfont/h/IwGxFontContainer.h'
p1103
(lp1104
I1
ag1091
asS'c:/marmalade/7.3/modules/iwgxfont/h/IwGxFontTypes.h'
p1105
(lp1106
I1
ag1091
asS'c:/marmalade/7.3/modules/iwgxfont/h/IwGxFontGlyph.h'
p1107
(lp1108
I1
ag1091
assS'iwgeom'
p1109
(dp1110
S'c:/marmalade/7.3/modules/iwgeom/h/IwGeomFVec4.h'
p1111
(lp1112
I1
a(dp1113
asS'c:/marmalade/7.3/modules/iwgeom/h/IwGeomSQuat.h'
p1114
(lp1115
I1
ag1113
asS'c:/marmalade/7.3/modules/iwgeom/h/IwGeomFMat.h'
p1116
(lp1117
I1
ag1113
asS'c:/marmalade/7.3/modules/iwgeom/h/IwGeomMenu.h'
p1118
(lp1119
I1
ag1113
asS'c:/marmalade/7.3/modules/iwgeom/h/IwGeomMat2D.h'
p1120
(lp1121
I1
ag1113
asS'c:/marmalade/7.3/modules/iwgeom/h/IwGeomVec4.h'
p1122
(lp1123
I1
ag1113
asS'c:/marmalade/7.3/modules/iwgeom/h/IwGeomFSphere.h'
p1124
(lp1125
I1
ag1113
asS'c:/marmalade/7.3/modules/iwgeom/h/IwGeomFVec3.h'
p1126
(lp1127
I1
ag1113
asS'c:/marmalade/7.3/modules/iwgeom/h/IwGeomVec3.h'
p1128
(lp1129
I1
ag1113
asS'c:/marmalade/7.3/modules/iwgeom/h/IwGeomPlane.h'
p1130
(lp1131
I1
ag1113
asS'c:/marmalade/7.3/modules/iwgeom/h/IwGeomCore.h'
p1132
(lp1133
I1
ag1113
asS'c:/marmalade/7.3/modules/iwgeom/h/IwGeomFVec2.h'
p1134
(lp1135
I1
ag1113
asS'c:/marmalade/7.3/modules/iwgeom/h/IwGeomSphere.h'
p1136
(lp1137
I1
ag1113
asS'c:/marmalade/7.3/modules/iwgeom/h/IwGeomLegacy.h'
p1138
(lp1139
I1
ag1113
asS'c:/marmalade/7.3/modules/iwgeom/h/IwGeomVec2.h'
p1140
(lp1141
I1
ag1113
asS'c:/marmalade/7.3/modules/iwgeom/h/IwGeomMat2D.h.tpl'
p1142
(lp1143
I1
ag1113
asS'c:/marmalade/7.3/modules/iwgeom/h/IwGeomFMat2D.h'
p1144
(lp1145
I1
ag1113
asS'c:/marmalade/7.3/modules/iwgeom/h/IwGeomVec.h'
p1146
(lp1147
I1
ag1113
asS'c:/marmalade/7.3/modules/iwgeom/h/IwGeomFBBox.h'
p1148
(lp1149
I1
ag1113
asS'c:/marmalade/7.3/modules/iwgeom/h/IwGeomMat.h.tpl'
p1150
(lp1151
I1
ag1113
asS'c:/marmalade/7.3/modules/iwgeom/docs/iwgeom.config.txt'
p1152
(lp1153
I1
ag1113
asS'c:/marmalade/7.3/modules/iwgeom/iwgeom.mkf'
p1154
(lp1155
I1
a(dp1156
asS'c:/marmalade/7.3/modules/iwgeom/h/IwGeomFQuat.h'
p1157
(lp1158
I1
ag1113
asS'c:/marmalade/7.3/modules/iwgeom/h/IwGeom.h'
p1159
(lp1160
I1
ag1113
asS'c:/marmalade/7.3/modules/iwgeom/h/IwGeomSVec3.h'
p1161
(lp1162
I1
ag1113
asS'c:/marmalade/7.3/modules/iwgeom/h/IwGeomMat.h'
p1163
(lp1164
I1
ag1113
asS'c:/marmalade/7.3/modules/iwgeom/h/IwGeomSVec4.h'
p1165
(lp1166
I1
ag1113
asS'c:/marmalade/7.3/modules/iwgeom/h/IwGeomSqrt.h'
p1167
(lp1168
I1
ag1113
asS'c:/marmalade/7.3/modules/iwgeom/h/IwGeomQuat.h'
p1169
(lp1170
I1
ag1113
asS'c:/marmalade/7.3/modules/iwgeom/h/IwGeomIntersect.h'
p1171
(lp1172
I1
ag1113
asS'c:/marmalade/7.3/modules/iwgeom/h/IwGeomFIntersect.h'
p1173
(lp1174
I1
ag1113
asS'c:/marmalade/7.3/modules/iwgeom/h/IwGeomFPlane.h'
p1175
(lp1176
I1
ag1113
asS'c:/marmalade/7.3/modules/iwgeom/h/IwGeomQuat.h.tpl'
p1177
(lp1178
I1
ag1113
asS'c:/marmalade/7.3/modules/iwgeom/h/IwGeomBBox.h'
p1179
(lp1180
I1
ag1113
asS'c:/marmalade/7.3/modules/iwgeom/h/IwGeomSVec2.h'
p1181
(lp1182
I1
ag1113
asS'c:/marmalade/7.3/modules/iwgeom/h/IwGeomVec.h.tpl'
p1183
(lp1184
I1
ag1113
assS'iwresmanager'
p1185
(dp1186
S'c:/marmalade/7.3/modules/iwresmanager/h/IwResHandler.h'
p1187
(lp1188
I1
a(dp1189
asS'c:/marmalade/7.3/modules/iwresmanager/h/IwResHandlerImage.h'
p1190
(lp1191
I1
ag1189
asS'c:/marmalade/7.3/modules/iwresmanager/docs/iwresmanager.config.txt'
p1192
(lp1193
I1
ag1189
asS'c:/marmalade/7.3/modules/iwresmanager/h/IwResManager.h'
p1194
(lp1195
I1
ag1189
asS'c:/marmalade/7.3/modules/iwresmanager/h/IwResSerialise.h'
p1196
(lp1197
I1
ag1189
asS'c:/marmalade/7.3/modules/iwresmanager/iwresmanager.mkf'
p1198
(lp1199
I1
a(dp1200
asS'c:/marmalade/7.3/modules/iwresmanager/h/IwResGroup.h'
p1201
(lp1202
I1
ag1189
asS'c:/marmalade/7.3/modules/iwresmanager/h/IwResHandlerITX.h'
p1203
(lp1204
I1
ag1189
asS'c:/marmalade/7.3/modules/iwresmanager/h/IwResHandlerGROUP.h'
p1205
(lp1206
I1
ag1189
asS'c:/marmalade/7.3/modules/iwresmanager/h/IwResManagerClass.h'
p1207
(lp1208
I1
ag1189
assS'iwgx'
p1209
(dp1210
S'c:/marmalade/7.3/modules/iwgx/h/IwResHandlerMTL.h'
p1211
(lp1212
I1
a(dp1213
asS'c:/marmalade/7.3/modules/iwgx/h/IwGxTypes.h'
p1214
(lp1215
I1
ag1213
asS'c:/marmalade/7.3/modules/iwgx/h/IwMaterial.h'
p1216
(lp1217
I1
ag1213
asS'c:/marmalade/7.3/modules/iwgx/h/IwDebugPrim.h'
p1218
(lp1219
I1
ag1213
asS'c:/marmalade/7.3/modules/iwgx/h/IwGxFuncTable.h'
p1220
(lp1221
I1
ag1213
asS'c:/marmalade/7.3/modules/iwgx/h/IwGxMetrics.h'
p1222
(lp1223
I1
ag1213
asS'c:/marmalade/7.3/modules/iwgx/h/IwMatAnim.h'
p1224
(lp1225
I1
ag1213
asS'c:/marmalade/7.3/modules/iwgx/h/IwGxShaderTechnique.h'
p1226
(lp1227
I1
ag1213
asS'c:/marmalade/7.3/modules/iwgx/h/IwGxState.h'
p1228
(lp1229
I1
ag1213
asS'c:/marmalade/7.3/modules/iwgx/h/IwClip.h'
p1230
(lp1231
I1
ag1213
asS'c:/marmalade/7.3/modules/iwgx/h/IwTPage.h'
p1232
(lp1233
I1
ag1213
asS'c:/marmalade/7.3/modules/iwgx/docs/iwgx.config.txt'
p1234
(lp1235
I1
ag1213
asS'c:/marmalade/7.3/modules/iwgx/h/IwColour.h'
p1236
(lp1237
I1
ag1213
asS'c:/marmalade/7.3/modules/iwgx/h/IwGx.h'
p1238
(lp1239
I1
ag1213
asS'c:/marmalade/7.3/modules/iwgx/docs/iwgx_public.defines.txt'
p1240
(lp1241
I1
ag1213
asS'c:/marmalade/7.3/modules/iwgx/h/IwFColour.h'
p1242
(lp1243
I1
ag1213
asS'c:/marmalade/7.3/modules/iwgx/h/IwGxStream.h'
p1244
(lp1245
I1
ag1213
asS'c:/marmalade/7.3/modules/iwgx/h/IwClip.inl'
p1246
(lp1247
I1
ag1213
asS'c:/marmalade/7.3/modules/iwgx/iwgx.mkf'
p1248
(lp1249
I1
a(dp1250
asS'c:/marmalade/7.3/modules/iwgx/h/IwGxPrint.h'
p1251
(lp1252
I1
ag1213
asS'c:/marmalade/7.3/modules/iwgx/h/IwGxSurface.h'
p1253
(lp1254
I1
ag1213
asS'c:/marmalade/7.3/modules/iwgx/h/IwGxError.h'
p1255
(lp1256
I1
ag1213
asS'c:/marmalade/7.3/modules/iwgx/h/IwGxDebug.h'
p1257
(lp1258
I1
ag1213
asS'c:/marmalade/7.3/modules/iwgx/h/IwTexture.h'
p1259
(lp1260
I1
ag1213
asS'c:/marmalade/7.3/modules/iwgx/h/IwGxTransformSW.h'
p1261
(lp1262
I1
ag1213
assS'iw2dscenegraphcore'
p1263
(dp1264
S'c:/marmalade/7.3/modules/iw2dscenegraphcore/h/Iw2DSceneGraphCore.h'
p1265
(lp1266
I1
a(dp1267
asS'c:/marmalade/7.3/modules/iw2dscenegraphcore/iw2dscenegraphcore.mkf'
p1268
(lp1269
I1
a(dp1270
asS'c:/marmalade/7.3/modules/iw2dscenegraphcore/source/Iw2DSceneGraphCore.cpp'
p1271
(lp1272
I1
ag1267
assS'iwutil'
p1273
(dp1274
S'c:/marmalade/7.3/modules/iwutil/h/IwVariableBitField.h'
p1275
(lp1276
I1
a(dp1277
asS'c:/marmalade/7.3/modules/iwutil/h/IwManagedList.h'
p1278
(lp1279
I1
ag1277
asS'c:/marmalade/7.3/modules/iwutil/docs/iwutil.config.txt'
p1280
(lp1281
I1
ag1277
asS'c:/marmalade/7.3/modules/iwutil/h/IwUtilInitTerm.h'
p1282
(lp1283
I1
ag1277
asS'c:/marmalade/7.3/modules/iwutil/h/IwList.h'
p1284
(lp1285
I1
ag1277
asS'c:/marmalade/7.3/modules/iwutil/h/IwAllocator.h'
p1286
(lp1287
I1
ag1277
asS'c:/marmalade/7.3/modules/iwutil/h/IwUTF8.h'
p1288
(lp1289
I1
ag1277
asS'c:/marmalade/7.3/modules/iwutil/h/IwHashString.h'
p1290
(lp1291
I1
ag1277
asS'c:/marmalade/7.3/modules/iwutil/h/IwMath.h'
p1292
(lp1293
I1
ag1277
asS'c:/marmalade/7.3/modules/iwutil/h/IwTextParser.h'
p1294
(lp1295
I1
ag1277
asS'c:/marmalade/7.3/modules/iwutil/h/IwString.h'
p1296
(lp1297
I1
ag1277
asS'c:/marmalade/7.3/modules/iwutil/h/IwOptimiseSpeed.h'
p1298
(lp1299
I1
ag1277
asS'c:/marmalade/7.3/modules/iwutil/h/IwRuntime.h'
p1300
(lp1301
I1
ag1277
asS'c:/marmalade/7.3/modules/iwutil/h/IwOptimiseThumb.h'
p1302
(lp1303
I1
ag1277
asS'c:/marmalade/7.3/modules/iwutil/h/IwSerialise.h'
p1304
(lp1305
I1
ag1277
asS'c:/marmalade/7.3/modules/iwutil/h/IwAutoFile.h'
p1306
(lp1307
I1
ag1277
asS'c:/marmalade/7.3/modules/iwutil/h/IwOptimiseARM.h'
p1308
(lp1309
I1
ag1277
asS'c:/marmalade/7.3/modules/iwutil/h/IwPath.h'
p1310
(lp1311
I1
ag1277
asS'c:/marmalade/7.3/modules/iwutil/h/IwFile.h'
p1312
(lp1313
I1
ag1277
asS'c:/marmalade/7.3/modules/iwutil/h/IwTextParseable.h'
p1314
(lp1315
I1
ag1277
asS'c:/marmalade/7.3/modules/iwutil/h/IwMenu.h'
p1316
(lp1317
I1
ag1277
asS'c:/marmalade/7.3/modules/iwutil/h/IwImage.h'
p1318
(lp1319
I1
ag1277
asS'c:/marmalade/7.3/modules/iwutil/h/IwProfileMenu.h'
p1320
(lp1321
I1
ag1277
asS'c:/marmalade/7.3/modules/iwutil/h/IwDivTable.h'
p1322
(lp1323
I1
ag1277
asS'c:/marmalade/7.3/modules/iwutil/h/IwMemBucketHelpers.h'
p1324
(lp1325
I1
ag1277
asS'c:/marmalade/7.3/modules/iwutil/h/IwDebug.h'
p1326
(lp1327
I1
ag1277
asS'c:/marmalade/7.3/modules/iwutil/h/IwArray.h'
p1328
(lp1329
I1
ag1277
asS'c:/marmalade/7.3/modules/iwutil/iwutil.mkf'
p1330
(lp1331
I1
a(dp1332
asS'c:/marmalade/7.3/modules/iwutil/h/IwMemBucket.h'
p1333
(lp1334
I1
ag1277
asS'c:/marmalade/7.3/modules/iwutil/h/IwDivide.h'
p1335
(lp1336
I1
ag1277
asS'c:/marmalade/7.3/modules/iwutil/h/IwCopyingPtr.h'
p1337
(lp1338
I1
ag1277
asS'c:/marmalade/7.3/modules/iwutil/h/IwUtil.h'
p1339
(lp1340
I1
ag1277
asS'c:/marmalade/7.3/modules/iwutil/h/IwFibre.h'
p1341
(lp1342
I1
ag1277
asS'c:/marmalade/7.3/modules/iwutil/h/IwImageHelper.h'
p1343
(lp1344
I1
ag1277
asS'c:/marmalade/7.3/modules/iwutil/h/IwSingleton.h'
p1345
(lp1346
I1
ag1277
asS'c:/marmalade/7.3/modules/iwutil/h/IwEvent.h'
p1347
(lp1348
I1
ag1277
asS'c:/marmalade/7.3/modules/iwutil/h/IwTypes.h'
p1349
(lp1350
I1
ag1277
asS'c:/marmalade/7.3/modules/iwutil/h/IwMemManagerDL.h'
p1351
(lp1352
I1
ag1277
asS'c:/marmalade/7.3/modules/iwutil/h/IwKeymap.h'
p1353
(lp1354
I1
ag1277
asS'c:/marmalade/7.3/modules/iwutil/h/IwCore.h'
p1355
(lp1356
I1
ag1277
asS'c:/marmalade/7.3/modules/iwutil/h/IwChar.h'
p1357
(lp1358
I1
ag1277
asS'c:/marmalade/7.3/modules/iwutil/h/IwManaged.h'
p1359
(lp1360
I1
ag1277
asS'c:/marmalade/7.3/modules/iwutil/h/IwMemory.h'
p1361
(lp1362
I1
ag1277
asS'c:/marmalade/7.3/modules/iwutil/h/IwBuffer.h'
p1363
(lp1364
I1
ag1277
asS'c:/marmalade/7.3/modules/iwutil/h/IwTextParserITX.h'
p1365
(lp1366
I1
ag1277
asS'c:/marmalade/7.3/modules/iwutil/h/IwOptimiseSize.h'
p1367
(lp1368
I1
ag1277
asS'c:/marmalade/7.3/modules/iwutil/h/IwRandom.h'
p1369
(lp1370
I1
ag1277
asS'c:/marmalade/7.3/modules/iwutil/h/IwResource.h'
p1371
(lp1372
I1
ag1277
asS'c:/marmalade/7.3/modules/iwutil/h/IwUncopyable.h'
p1373
(lp1374
I1
ag1277
asS'c:/marmalade/7.3/modules/iwutil/h/IwClassFactory.h'
p1375
(lp1376
I1
ag1277
asssS'(zlib)'
p1377
(dp1378
S'c:/marmalade/7.3/modules/third_party/zlib/zlib.mkf'
p1379
(lp1380
I1
a(dp1381
asg976
(dp1382
S'c:/marmalade/7.3/modules/third_party/zlib/h/zlib.h'
p1383
(lp1384
I1
a(dp1385
asS'c:/marmalade/7.3/modules/third_party/zlib/h/zconf.h'
p1386
(lp1387
I1
ag1385
asssS'(iwtween)'
p1388
(dp1389
S'c:/marmalade/7.3/modules/iwtween/source/IwTween.cpp'
p1390
(lp1391
I1
a(dp1392
asS'c:/marmalade/7.3/modules/iwtween/h/IwTween.h'
p1393
(lp1394
I1
ag1392
asS'c:/marmalade/7.3/modules/iwtween/iwtween.mkf'
p1395
(lp1396
I1
a(dp1397
asssS'files'
p1398
(dp1399
S'IwGxFontPreparedData.h'
p1400
g301
(cmkb_main
File
p1401
g303
Ntp1402
Rp1403
(dp1404
S'flags'
p1405
g1091
sS'group'
p1406
(lp1407
S"'Marmalade Studio'"
p1408
ag1087
asg327
g1092
sbsS'iterator'
p1409
g301
(g1401
g303
Ntp1410
Rp1411
(dp1412
g1405
(dp1413
sg1406
(lp1414
S"'Marmalade System (S3E)'"
p1415
aS'stdc headers'
p1416
aS'c++'
p1417
asg327
S'c:/marmalade/7.3/s3e/h/std/c++/iterator'
p1418
sbsS'IwGL.h'
p1419
g301
(g1401
g303
Ntp1420
Rp1421
(dp1422
g1405
g1067
sg1406
(lp1423
S"'Marmalade Studio'"
p1424
ag1063
asg327
g1065
sbsS's3e.h'
p1425
g301
(g1401
g303
Ntp1426
Rp1427
(dp1428
g1405
g1413
sg1406
(lp1429
g1415
asg327
S'c:/marmalade/7.3/s3e/h/s3e.h'
p1430
sbsS'errno.h'
p1431
g301
(g1401
g303
Ntp1432
Rp1433
(dp1434
g1405
g1413
sg1406
(lp1435
g1415
aS'stdc headers'
p1436
asg327
S'c:/marmalade/7.3/s3e/h/std/errno.h'
p1437
sbsS'IwSingleton.h'
p1438
g301
(g1401
g303
Ntp1439
Rp1440
(dp1441
g1405
g1277
sg1406
(lp1442
S"'Marmalade Studio'"
p1443
ag1273
asg327
g1345
sbsS'dlfcn.h'
p1444
g301
(g1401
g303
Ntp1445
Rp1446
(dp1447
g1405
g1413
sg1406
g1435
sg327
S'c:/marmalade/7.3/s3e/h/std/dlfcn.h'
p1448
sbsS'stdio_streambuf'
p1449
g301
(g1401
g303
Ntp1450
Rp1451
(dp1452
g1405
g1413
sg1406
g1414
sg327
S'c:/marmalade/7.3/s3e/h/std/c++/stdio_streambuf'
p1453
sbsS'sched.h'
p1454
g301
(g1401
g303
Ntp1455
Rp1456
(dp1457
g1405
g1413
sg1406
g1435
sg327
S'c:/marmalade/7.3/s3e/h/std/sched.h'
p1458
sbsS'IwGeomFMat2D.h'
p1459
g301
(g1401
g303
Ntp1460
Rp1461
(dp1462
g1405
g1113
sg1406
(lp1463
S"'Marmalade Studio'"
p1464
ag1109
asg327
g1144
sbsS's3eExt.h'
p1465
g301
(g1401
g303
Ntp1466
Rp1467
(dp1468
g1405
g1413
sg1406
g1429
sg327
S'c:/marmalade/7.3/s3e/h/s3eExt.h'
p1469
sbsS'grp.h'
p1470
g301
(g1401
g303
Ntp1471
Rp1472
(dp1473
g1405
g1413
sg1406
g1435
sg327
S'c:/marmalade/7.3/s3e/h/std/grp.h'
p1474
sbsS'list'
p1475
g301
(g1401
g303
Ntp1476
Rp1477
(dp1478
g1405
g1413
sg1406
g1414
sg327
S'c:/marmalade/7.3/s3e/h/std/c++/list'
p1479
sbsS'IwGeomMat.h.tpl'
p1480
g301
(g1401
g303
Ntp1481
Rp1482
(dp1483
g1405
g1113
sg1406
g1463
sg327
g1150
sbsS'istream'
p1484
g301
(g1401
g303
Ntp1485
Rp1486
(dp1487
g1405
g1413
sg1406
g1414
sg327
S'c:/marmalade/7.3/s3e/h/std/c++/istream'
p1488
sbsS'jpeglib.h'
p1489
g301
(g1401
g303
Ntp1490
Rp1491
(dp1492
g1405
g980
sg1406
(lp1493
g974
ag976
asg327
g978
sbsS'iw2d_public.defines.txt'
p1494
g301
(g1401
g303
Ntp1495
Rp1496
(dp1497
g1405
g1082
sg1406
(lp1498
S"'Marmalade Studio'"
p1499
ag1075
asg327
g1083
sbsS'iostream.h'
p1500
g301
(g1401
g303
Ntp1501
Rp1502
(dp1503
g1405
g1413
sg1406
g1414
sg327
S'c:/marmalade/7.3/s3e/h/std/c++/iostream.h'
p1504
sbsS'string'
p1505
g301
(g1401
g303
Ntp1506
Rp1507
(dp1508
g1405
g1413
sg1406
g1414
sg327
S'c:/marmalade/7.3/s3e/h/std/c++/string'
p1509
sbsS'IwMemory.h'
p1510
g301
(g1401
g303
Ntp1511
Rp1512
(dp1513
g1405
g1277
sg1406
g1442
sg327
g1361
sbsS'IwGeomPlane.h'
p1514
g301
(g1401
g303
Ntp1515
Rp1516
(dp1517
g1405
g1113
sg1406
g1463
sg327
g1130
sbsS'iw2d.config.txt'
p1518
g301
(g1401
g303
Ntp1519
Rp1520
(dp1521
g1405
g1082
sg1406
g1498
sg327
g1085
sbsS'iomanip'
p1522
g301
(g1401
g303
Ntp1523
Rp1524
(dp1525
g1405
g1413
sg1406
g1414
sg327
S'c:/marmalade/7.3/s3e/h/std/c++/iomanip'
p1526
sbsS'iwgeom.mkf'
p1527
g301
(g1401
g303
Ntp1528
Rp1529
(dp1530
g1405
g1156
sg1406
g1463
sg327
g1154
sbsS'IwGxError.h'
p1531
g301
(g1401
g303
Ntp1532
Rp1533
(dp1534
g1405
g1213
sg1406
(lp1535
S"'Marmalade Studio'"
p1536
ag1209
asg327
g1255
sbsS'IwGeom.h'
p1537
g301
(g1401
g303
Ntp1538
Rp1539
(dp1540
g1405
g1113
sg1406
g1463
sg327
g1159
sbsS'IwGeomVec4.h'
p1541
g301
(g1401
g303
Ntp1542
Rp1543
(dp1544
g1405
g1113
sg1406
g1463
sg327
g1122
sbsS'dir.h'
p1545
g301
(g1401
g303
Ntp1546
Rp1547
(dp1548
g1405
g1413
sg1406
(lp1549
g1415
aS'stdc headers'
p1550
aS'sys'
p1551
asg327
S'c:/marmalade/7.3/s3e/h/std/sys/dir.h'
p1552
sbsS'locale.h'
p1553
g301
(g1401
g303
Ntp1554
Rp1555
(dp1556
g1405
g1413
sg1406
g1435
sg327
S'c:/marmalade/7.3/s3e/h/std/locale.h'
p1557
sbsS'vector'
p1558
g301
(g1401
g303
Ntp1559
Rp1560
(dp1561
g1405
g1413
sg1406
g1414
sg327
S'c:/marmalade/7.3/s3e/h/std/c++/vector'
p1562
sbsS'IwManaged.h'
p1563
g301
(g1401
g303
Ntp1564
Rp1565
(dp1566
g1405
g1277
sg1406
g1442
sg327
g1359
sbsS's3eCompass.h'
p1567
g301
(g1401
g303
Ntp1568
Rp1569
(dp1570
g1405
g1413
sg1406
g1429
sg327
S'c:/marmalade/7.3/s3e/h/s3eCompass.h'
p1571
sbsS'cderror.h'
p1572
g301
(g1401
g303
Ntp1573
Rp1574
(dp1575
g1405
g980
sg1406
g1493
sg327
g995
sbsS'climits'
p1576
g301
(g1401
g303
Ntp1577
Rp1578
(dp1579
g1405
g1413
sg1406
g1414
sg327
S'c:/marmalade/7.3/s3e/h/std/c++/climits'
p1580
sbsS's3eVibra.h'
p1581
g301
(g1401
g303
Ntp1582
Rp1583
(dp1584
g1405
g1413
sg1406
g1429
sg327
S'c:/marmalade/7.3/s3e/h/s3eVibra.h'
p1585
sbsS'jversion.h'
p1586
g301
(g1401
g303
Ntp1587
Rp1588
(dp1589
g1405
g980
sg1406
g1493
sg327
g1005
sbsS'fnmatch.h'
p1590
g301
(g1401
g303
Ntp1591
Rp1592
(dp1593
g1405
g1413
sg1406
g1435
sg327
S'c:/marmalade/7.3/s3e/h/std/fnmatch.h'
p1594
sbsS'IwGxState.h'
p1595
g301
(g1401
g303
Ntp1596
Rp1597
(dp1598
g1405
g1213
sg1406
g1535
sg327
g1228
sbsS's3eAudio.h'
p1599
g301
(g1401
g303
Ntp1600
Rp1601
(dp1602
g1405
g1413
sg1406
g1429
sg327
S'c:/marmalade/7.3/s3e/h/s3eAudio.h'
p1603
sbsS's3eSurface.h'
p1604
g301
(g1401
g303
Ntp1605
Rp1606
(dp1607
g1405
g1413
sg1406
g1429
sg327
S'c:/marmalade/7.3/s3e/h/s3eSurface.h'
p1608
sbsS'new'
p1609
g301
(g1401
g303
Ntp1610
Rp1611
(dp1612
g1405
g1413
sg1406
g1414
sg327
S'c:/marmalade/7.3/s3e/h/std/c++/new'
p1613
sbsS's3eWindow.h'
p1614
g301
(g1401
g303
Ntp1615
Rp1616
(dp1617
g1405
g1413
sg1406
(lp1618
g1415
aS'Extensions'
p1619
asg327
S'c:/marmalade/7.3/s3e/h/ext/s3eWindow.h'
p1620
sbsS'IwBuffer.h'
p1621
g301
(g1401
g303
Ntp1622
Rp1623
(dp1624
g1405
g1277
sg1406
g1442
sg327
g1363
sbsS'IwGeomQuat.h.tpl'
p1625
g301
(g1401
g303
Ntp1626
Rp1627
(dp1628
g1405
g1113
sg1406
g1463
sg327
g1177
sbsS's3eOSExec.h'
p1629
g301
(g1401
g303
Ntp1630
Rp1631
(dp1632
g1405
g1413
sg1406
g1618
sg327
S'c:/marmalade/7.3/s3e/h/ext/s3eOSExec.h'
p1633
sbsS'IwGxTransformSW.h'
p1634
g301
(g1401
g303
Ntp1635
Rp1636
(dp1637
g1405
g1213
sg1406
g1535
sg327
g1261
sbsS'IwGxMetrics.h'
p1638
g301
(g1401
g303
Ntp1639
Rp1640
(dp1641
g1405
g1213
sg1406
g1535
sg327
g1222
sbsS'iwgxfont.config.txt'
p1642
g301
(g1401
g303
Ntp1643
Rp1644
(dp1645
g1405
g1091
sg1406
g1407
sg327
g1097
sbsS'gl2platform.h'
p1646
g301
(g1401
g303
Ntp1647
Rp1648
(dp1649
g1405
g1413
sg1406
(lp1650
g1415
aS'GL'
p1651
aS'GLES 2.0'
p1652
asg327
S'c:/marmalade/7.3/s3e/h/GLES2/gl2platform.h'
p1653
sbsS'iw2dscenegraph.defines.txt'
p1654
g301
(g1401
g303
Ntp1655
Rp1656
(dp1657
g1405
g1058
sg1406
(lp1658
S"'Marmalade Studio'"
p1659
ag1051
asg327
g1056
sbsS'queue'
p1660
g301
(g1401
g303
Ntp1661
Rp1662
(dp1663
g1405
g1413
sg1406
g1414
sg327
S'c:/marmalade/7.3/s3e/h/std/c++/queue'
p1664
sbsS'time_1.h'
p1665
g301
(g1401
g303
Ntp1666
Rp1667
(dp1668
g1405
g1413
sg1406
g1549
sg327
S'c:/marmalade/7.3/s3e/h/std/sys/time.h'
p1669
sbsS'Iw2D.h'
p1670
g301
(g1401
g303
Ntp1671
Rp1672
(dp1673
g1405
g1082
sg1406
g1498
sg327
g1080
sbsS'IwGeomVec2.h'
p1674
g301
(g1401
g303
Ntp1675
Rp1676
(dp1677
g1405
g1113
sg1406
g1463
sg327
g1140
sbsS's3eDevice.h'
p1678
g301
(g1401
g303
Ntp1679
Rp1680
(dp1681
g1405
g1413
sg1406
g1429
sg327
S'c:/marmalade/7.3/s3e/h/s3eDevice.h'
p1682
sbsS'malloc.h'
p1683
g301
(g1401
g303
Ntp1684
Rp1685
(dp1686
g1405
g1413
sg1406
g1435
sg327
S'c:/marmalade/7.3/s3e/h/std/malloc.h'
p1687
sbsS'stdarg.h'
p1688
g301
(g1401
g303
Ntp1689
Rp1690
(dp1691
g1405
g1413
sg1406
g1435
sg327
S'c:/marmalade/7.3/s3e/h/std/stdarg.h'
p1692
sbsS'IwGeomCore.h'
p1693
g301
(g1401
g303
Ntp1694
Rp1695
(dp1696
g1405
g1113
sg1406
g1463
sg327
g1132
sbsS'Iw2DSceneGraph.h'
p1697
g301
(g1401
g303
Ntp1698
Rp1699
(dp1700
g1405
g1058
sg1406
g1658
sg327
g1061
sbsS'endian.h'
p1701
g301
(g1401
g303
Ntp1702
Rp1703
(dp1704
g1405
g1413
sg1406
g1435
sg327
S'c:/marmalade/7.3/s3e/h/std/endian.h'
p1705
sbsS'gl3ext.h'
p1706
g301
(g1401
g303
Ntp1707
Rp1708
(dp1709
g1405
g1413
sg1406
(lp1710
g1415
aS'GL'
p1711
aS'GLES 3.0'
p1712
asg327
S'c:/marmalade/7.3/s3e/h/GLES3/gl3ext.h'
p1713
sbsS'glob.h'
p1714
g301
(g1401
g303
Ntp1715
Rp1716
(dp1717
g1405
g1413
sg1406
g1435
sg327
S'c:/marmalade/7.3/s3e/h/std/glob.h'
p1718
sbsS'fstream'
p1719
g301
(g1401
g303
Ntp1720
Rp1721
(dp1722
g1405
g1413
sg1406
g1414
sg327
S'c:/marmalade/7.3/s3e/h/std/c++/fstream'
p1723
sbsS's3eCamera.h'
p1724
g301
(g1401
g303
Ntp1725
Rp1726
(dp1727
g1405
g1413
sg1406
g1429
sg327
S'c:/marmalade/7.3/s3e/h/s3eCamera.h'
p1728
sbsS'jconfig.h'
p1729
g301
(g1401
g303
Ntp1730
Rp1731
(dp1732
g1405
g980
sg1406
g1493
sg327
g989
sbsS'memory'
p1733
g301
(g1401
g303
Ntp1734
Rp1735
(dp1736
g1405
g1413
sg1406
g1414
sg327
S'c:/marmalade/7.3/s3e/h/std/c++/memory'
p1737
sbsS'egl.h'
p1738
g301
(g1401
g303
Ntp1739
Rp1740
(dp1741
g1405
g1413
sg1406
(lp1742
g1415
aS'GL'
p1743
aS'EGL'
p1744
asg327
S'c:/marmalade/7.3/s3e/h/EGL/egl.h'
p1745
sbsS'IwClip.inl'
p1746
g301
(g1401
g303
Ntp1747
Rp1748
(dp1749
g1405
g1213
sg1406
g1535
sg327
g1246
sbsS'IwMemManagerDL.h'
p1750
g301
(g1401
g303
Ntp1751
Rp1752
(dp1753
g1405
g1277
sg1406
g1442
sg327
g1351
sbsS'deque'
p1754
g301
(g1401
g303
Ntp1755
Rp1756
(dp1757
g1405
g1413
sg1406
g1414
sg327
S'c:/marmalade/7.3/s3e/h/std/c++/deque'
p1758
sbsS'IwString.h'
p1759
g301
(g1401
g303
Ntp1760
Rp1761
(dp1762
g1405
g1277
sg1406
g1442
sg327
g1296
sbsS'cwchar'
p1763
g301
(g1401
g303
Ntp1764
Rp1765
(dp1766
g1405
g1413
sg1406
g1414
sg327
S'c:/marmalade/7.3/s3e/h/std/c++/cwchar'
p1767
sbsS'iwutil.mkf'
p1768
g301
(g1401
g303
Ntp1769
Rp1770
(dp1771
g1405
g1332
sg1406
g1442
sg327
g1330
sbsS'csignal'
p1772
g301
(g1401
g303
Ntp1773
Rp1774
(dp1775
g1405
g1413
sg1406
g1414
sg327
S'c:/marmalade/7.3/s3e/h/std/c++/csignal'
p1776
sbsS'float.h'
p1777
g301
(g1401
g303
Ntp1778
Rp1779
(dp1780
g1405
g1413
sg1406
g1435
sg327
S'c:/marmalade/7.3/s3e/h/std/float.h'
p1781
sbsS'pthread_alloc'
p1782
g301
(g1401
g303
Ntp1783
Rp1784
(dp1785
g1405
g1413
sg1406
g1414
sg327
S'c:/marmalade/7.3/s3e/h/std/c++/pthread_alloc'
p1786
sbsS'getopt.h'
p1787
g301
(g1401
g303
Ntp1788
Rp1789
(dp1790
g1405
g1413
sg1406
g1435
sg327
S'c:/marmalade/7.3/s3e/h/std/getopt.h'
p1791
sbsS'IwOptimiseARM.h'
p1792
g301
(g1401
g303
Ntp1793
Rp1794
(dp1795
g1405
g1277
sg1406
g1442
sg327
g1308
sbsS'times.h'
p1796
g301
(g1401
g303
Ntp1797
Rp1798
(dp1799
g1405
g1413
sg1406
g1549
sg327
S'c:/marmalade/7.3/s3e/h/std/sys/times.h'
p1800
sbsS'IwGeomFSphere.h'
p1801
g301
(g1401
g303
Ntp1802
Rp1803
(dp1804
g1405
g1113
sg1406
g1463
sg327
g1124
sbsS'IwTypes.h'
p1805
g301
(g1401
g303
Ntp1806
Rp1807
(dp1808
g1405
g1277
sg1406
g1442
sg327
g1349
sbsS'unistd.h'
p1809
g301
(g1401
g303
Ntp1810
Rp1811
(dp1812
g1405
g1413
sg1406
g1435
sg327
S'c:/marmalade/7.3/s3e/h/std/unistd.h'
p1813
sbsS's3eCompression.h'
p1814
g301
(g1401
g303
Ntp1815
Rp1816
(dp1817
g1405
g1413
sg1406
g1429
sg327
S'c:/marmalade/7.3/s3e/h/s3eCompression.h'
p1818
sbsS'langinfo.h'
p1819
g301
(g1401
g303
Ntp1820
Rp1821
(dp1822
g1405
g1413
sg1406
g1435
sg327
S'c:/marmalade/7.3/s3e/h/std/langinfo.h'
p1823
sbsS's3edebugHeap.h'
p1824
g301
(g1401
g303
Ntp1825
Rp1826
(dp1827
g1405
g1413
sg1406
g1618
sg327
S'c:/marmalade/7.3/s3e/h/ext/s3edebugHeap.h'
p1828
sbsS'AirplayVersion.h'
p1829
g301
(g1401
g303
Ntp1830
Rp1831
(dp1832
g1405
g1413
sg1406
g1429
sg327
S'c:/marmalade/7.3/s3e/h/AirplayVersion.h'
p1833
sbsS'gl2extimg.h'
p1834
g301
(g1401
g303
Ntp1835
Rp1836
(dp1837
g1405
g1413
sg1406
g1650
sg327
S'c:/marmalade/7.3/s3e/h/GLES2/gl2extimg.h'
p1838
sbsS'app.config.txt'
p1839
g301
(g1401
g303
Ntp1840
Rp1841
(dp1842
g1405
(dp1843
sg1406
g4
sg327
S'd:/src/marmalade/BallGame/data/app.config.txt'
p1844
sbsS'IwGeomSqrt.h'
p1845
g301
(g1401
g303
Ntp1846
Rp1847
(dp1848
g1405
g1113
sg1406
g1463
sg327
g1167
sbsS'tiniconv_int.h'
p1849
g301
(g1401
g303
Ntp1850
Rp1851
(dp1852
g1405
g1017
sg1406
(lp1853
g1010
asg327
g1015
sbsS'syslog.h'
p1854
g301
(g1401
g303
Ntp1855
Rp1856
(dp1857
g1405
g1413
sg1406
g1435
sg327
S'c:/marmalade/7.3/s3e/h/std/syslog.h'
p1858
sbsS'IwGxFontTypes.h'
p1859
g301
(g1401
g303
Ntp1860
Rp1861
(dp1862
g1405
g1091
sg1406
g1407
sg327
g1105
sbsS'IwGeomFIntersect.h'
p1863
g301
(g1401
g303
Ntp1864
Rp1865
(dp1866
g1405
g1113
sg1406
g1463
sg327
g1173
sbsS'hash_map'
p1867
g301
(g1401
g303
Ntp1868
Rp1869
(dp1870
g1405
g1413
sg1406
g1414
sg327
S'c:/marmalade/7.3/s3e/h/std/c++/hash_map'
p1871
sbsS's3e.mkf'
p1872
g301
(g1401
g303
Ntp1873
Rp1874
(dp1875
g1405
(dp1876
sg1406
g1429
sg327
S'c:/marmalade/7.3/s3e/s3e.mkf'
p1877
sbsS'IwGeomMat2D.h.tpl'
p1878
g301
(g1401
g303
Ntp1879
Rp1880
(dp1881
g1405
g1113
sg1406
g1463
sg327
g1142
sbsS's3eOSReadString.h'
p1882
g301
(g1401
g303
Ntp1883
Rp1884
(dp1885
g1405
g1413
sg1406
g1618
sg327
S'c:/marmalade/7.3/s3e/h/ext/s3eOSReadString.h'
p1886
sbsS'map'
p1887
g301
(g1401
g303
Ntp1888
Rp1889
(dp1890
g1405
g1413
sg1406
g1414
sg327
S'c:/marmalade/7.3/s3e/h/std/c++/map'
p1891
sbsS'iwtween.mkf'
p1892
g301
(g1401
g303
Ntp1893
Rp1894
(dp1895
g1405
g1397
sg1406
(lp1896
g1388
asg327
g1395
sbsS'IwOptimiseSpeed.h'
p1897
g301
(g1401
g303
Ntp1898
Rp1899
(dp1900
g1405
g1277
sg1406
g1442
sg327
g1298
sbsS'msl_string.h'
p1901
g301
(g1401
g303
Ntp1902
Rp1903
(dp1904
g1405
g1413
sg1406
g1414
sg327
S'c:/marmalade/7.3/s3e/h/std/c++/msl_string.h'
p1905
sbsS'select.h'
p1906
g301
(g1401
g303
Ntp1907
Rp1908
(dp1909
g1405
g1413
sg1406
g1549
sg327
S'c:/marmalade/7.3/s3e/h/std/sys/select.h'
p1910
sbsS'zlib.mkf'
p1911
g301
(g1401
g303
Ntp1912
Rp1913
(dp1914
g1405
g1381
sg1406
(lp1915
g1377
asg327
g1379
sbsS'signal.h'
p1916
g301
(g1401
g303
Ntp1917
Rp1918
(dp1919
g1405
g1413
sg1406
g1435
sg327
S'c:/marmalade/7.3/s3e/h/std/signal.h'
p1920
sbsS'sigcontext.h'
p1921
g301
(g1401
g303
Ntp1922
Rp1923
(dp1924
g1405
g1413
sg1406
g1435
sg327
S'c:/marmalade/7.3/s3e/h/std/sigcontext.h'
p1925
sbsS'libpng.mkf'
p1926
g301
(g1401
g303
Ntp1927
Rp1928
(dp1929
g1405
g1030
sg1406
(lp1930
g1020
asg327
g1028
sbsS's3eClipboard.h'
p1931
g301
(g1401
g303
Ntp1932
Rp1933
(dp1934
g1405
g1413
sg1406
g1429
sg327
S'c:/marmalade/7.3/s3e/h/s3eClipboard.h'
p1935
sbsS'IwGxFuncTable.h'
p1936
g301
(g1401
g303
Ntp1937
Rp1938
(dp1939
g1405
g1213
sg1406
g1535
sg327
g1220
sbsS'IwResHandlerGROUP.h'
p1940
g301
(g1401
g303
Ntp1941
Rp1942
(dp1943
g1405
g1189
sg1406
(lp1944
g1049
ag1185
asg327
g1205
sbsS's3eDebug.h'
p1945
g301
(g1401
g303
Ntp1946
Rp1947
(dp1948
g1405
g1413
sg1406
g1429
sg327
S'c:/marmalade/7.3/s3e/h/s3eDebug.h'
p1949
sbsS'socket.h'
p1950
g301
(g1401
g303
Ntp1951
Rp1952
(dp1953
g1405
g1413
sg1406
g1549
sg327
S'c:/marmalade/7.3/s3e/h/std/sys/socket.h'
p1954
sbsS'glext.h'
p1955
g301
(g1401
g303
Ntp1956
Rp1957
(dp1958
g1405
g1413
sg1406
(lp1959
g1415
aS'GL'
p1960
aS'GLES 1.x'
p1961
asg327
S'c:/marmalade/7.3/s3e/h/GLES/glext.h'
p1962
sbsS'typeinfo.h'
p1963
g301
(g1401
g303
Ntp1964
Rp1965
(dp1966
g1405
g1413
sg1406
g1414
sg327
S'c:/marmalade/7.3/s3e/h/std/c++/typeinfo.h'
p1967
sbsS'typeinfo'
p1968
g301
(g1401
g303
Ntp1969
Rp1970
(dp1971
g1405
g1413
sg1406
g1414
sg327
S'c:/marmalade/7.3/s3e/h/std/c++/typeinfo'
p1972
sbsS'fstream.h'
p1973
g301
(g1401
g303
Ntp1974
Rp1975
(dp1976
g1405
g1413
sg1406
g1414
sg327
S'c:/marmalade/7.3/s3e/h/std/c++/fstream.h'
p1977
sbsS's3ePointer.h'
p1978
g301
(g1401
g303
Ntp1979
Rp1980
(dp1981
g1405
g1413
sg1406
g1429
sg327
S'c:/marmalade/7.3/s3e/h/s3ePointer.h'
p1982
sbsS'IwMemBucket.h'
p1983
g301
(g1401
g303
Ntp1984
Rp1985
(dp1986
g1405
g1277
sg1406
g1442
sg327
g1333
sbsS'PVRTexTool.h'
p1987
g301
(g1401
g303
Ntp1988
Rp1989
(dp1990
g1405
g1037
sg1406
(lp1991
g1031
ag1033
asg327
g1035
sbsS's3eGL.h'
p1992
g301
(g1401
g303
Ntp1993
Rp1994
(dp1995
g1405
g1413
sg1406
g1429
sg327
S'c:/marmalade/7.3/s3e/h/s3eGL.h'
p1996
sbsS'IwGeomFVec2.h'
p1997
g301
(g1401
g303
Ntp1998
Rp1999
(dp2000
g1405
g1113
sg1406
g1463
sg327
g1134
sbsS'IwGeomSVec4.h'
p2001
g301
(g1401
g303
Ntp2002
Rp2003
(dp2004
g1405
g1113
sg1406
g1463
sg327
g1165
sbsS'poll.h'
p2005
g301
(g1401
g303
Ntp2006
Rp2007
(dp2008
g1405
g1413
sg1406
g1435
sg327
S'c:/marmalade/7.3/s3e/h/std/poll.h'
p2009
sbsS'IwMatAnim.h'
p2010
g301
(g1401
g303
Ntp2011
Rp2012
(dp2013
g1405
g1213
sg1406
g1535
sg327
g1224
sbsS'PVRTexTool.defines.txt'
p2014
g301
(g1401
g303
Ntp2015
Rp2016
(dp2017
g1405
g1037
sg1406
(lp2018
g1031
ag1033
ag1038
asg327
g1042
sbsS'IwGx.h'
p2019
g301
(g1401
g303
Ntp2020
Rp2021
(dp2022
g1405
g1213
sg1406
g1535
sg327
g1238
sbsS'valarray'
p2023
g301
(g1401
g303
Ntp2024
Rp2025
(dp2026
g1405
g1413
sg1406
g1414
sg327
S'c:/marmalade/7.3/s3e/h/std/c++/valarray'
p2027
sbsS'iosfwd'
p2028
g301
(g1401
g303
Ntp2029
Rp2030
(dp2031
g1405
g1413
sg1406
g1414
sg327
S'c:/marmalade/7.3/s3e/h/std/c++/iosfwd'
p2032
sbsS'gl2.h'
p2033
g301
(g1401
g303
Ntp2034
Rp2035
(dp2036
g1405
g1413
sg1406
g1650
sg327
S'c:/marmalade/7.3/s3e/h/GLES2/gl2.h'
p2037
sbsS'jpegint.h'
p2038
g301
(g1401
g303
Ntp2039
Rp2040
(dp2041
g1405
g980
sg1406
g1493
sg327
g1003
sbsS'stdiostream.h'
p2042
g301
(g1401
g303
Ntp2043
Rp2044
(dp2045
g1405
g1413
sg1406
g1414
sg327
S'c:/marmalade/7.3/s3e/h/std/c++/stdiostream.h'
p2046
sbsS'mem.h'
p2047
g301
(g1401
g303
Ntp2048
Rp2049
(dp2050
g1405
g1413
sg1406
g1414
sg327
S'c:/marmalade/7.3/s3e/h/std/c++/mem.h'
p2051
sbsS'jerror.h'
p2052
g301
(g1401
g303
Ntp2053
Rp2054
(dp2055
g1405
g980
sg1406
g1493
sg327
g983
sbsS'zconf.h'
p2056
g301
(g1401
g303
Ntp2057
Rp2058
(dp2059
g1405
g1385
sg1406
(lp2060
g1377
ag976
asg327
g1386
sbsS's3e.config.txt'
p2061
g301
(g1401
g303
Ntp2062
Rp2063
(dp2064
g1405
g1413
sg1406
g1429
sg327
S'c:/marmalade/7.3/s3e/s3e.config.txt'
p2065
sbsS'numeric'
p2066
g301
(g1401
g303
Ntp2067
Rp2068
(dp2069
g1405
g1413
sg1406
g1414
sg327
S'c:/marmalade/7.3/s3e/h/std/c++/numeric'
p2070
sbsS'utime.h'
p2071
g301
(g1401
g303
Ntp2072
Rp2073
(dp2074
g1405
g1413
sg1406
g1435
sg327
S'c:/marmalade/7.3/s3e/h/std/utime.h'
p2075
sbsS'jdhuff.h'
p2076
g301
(g1401
g303
Ntp2077
Rp2078
(dp2079
g1405
g980
sg1406
g1493
sg327
g991
sbsS'IwGxStream.h'
p2080
g301
(g1401
g303
Ntp2081
Rp2082
(dp2083
g1405
g1213
sg1406
g1535
sg327
g1244
sbsS'IwImage.h'
p2084
g301
(g1401
g303
Ntp2085
Rp2086
(dp2087
g1405
g1277
sg1406
g1442
sg327
g1318
sbsS's3eImagePicker.h'
p2088
g301
(g1401
g303
Ntp2089
Rp2090
(dp2091
g1405
g1413
sg1406
g1618
sg327
S'c:/marmalade/7.3/s3e/h/ext/s3eImagePicker.h'
p2092
sbsS'IwTextParserITX.h'
p2093
g301
(g1401
g303
Ntp2094
Rp2095
(dp2096
g1405
g1277
sg1406
g1442
sg327
g1365
sbsS'stdlib.h'
p2097
g301
(g1401
g303
Ntp2098
Rp2099
(dp2100
g1405
g1413
sg1406
g1435
sg327
S'c:/marmalade/7.3/s3e/h/std/stdlib.h'
p2101
sbsS'IwCopyingPtr.h'
p2102
g301
(g1401
g303
Ntp2103
Rp2104
(dp2105
g1405
g1277
sg1406
g1442
sg327
g1337
sbsS'iostream'
p2106
g301
(g1401
g303
Ntp2107
Rp2108
(dp2109
g1405
g1413
sg1406
g1414
sg327
S'c:/marmalade/7.3/s3e/h/std/c++/iostream'
p2110
sbsS'png.h'
p2111
g301
(g1401
g303
Ntp2112
Rp2113
(dp2114
g1405
g1025
sg1406
(lp2115
g1020
ag976
asg327
g1026
sbsS'stddef.h'
p2116
g301
(g1401
g303
Ntp2117
Rp2118
(dp2119
g1405
g1413
sg1406
g1435
sg327
S'c:/marmalade/7.3/s3e/h/std/stddef.h'
p2120
sbsS'setjmp_win32.h'
p2121
g301
(g1401
g303
Ntp2122
Rp2123
(dp2124
g1405
g1413
sg1406
g1435
sg327
S'c:/marmalade/7.3/s3e/h/std/setjmp_win32.h'
p2125
sbsS'IwGxPrint.h'
p2126
g301
(g1401
g303
Ntp2127
Rp2128
(dp2129
g1405
g1213
sg1406
g1535
sg327
g1251
sbsS'iwgx_public.defines.txt'
p2130
g301
(g1401
g303
Ntp2131
Rp2132
(dp2133
g1405
g1213
sg1406
g1535
sg327
g1240
sbsS'streambuf.h'
p2134
g301
(g1401
g303
Ntp2135
Rp2136
(dp2137
g1405
g1413
sg1406
g1414
sg327
S'c:/marmalade/7.3/s3e/h/std/c++/streambuf.h'
p2138
sbsS'IwGeomFPlane.h'
p2139
g301
(g1401
g303
Ntp2140
Rp2141
(dp2142
g1405
g1113
sg1406
g1463
sg327
g1175
sbsS'wchar.h'
p2143
g301
(g1401
g303
Ntp2144
Rp2145
(dp2146
g1405
g1413
sg1406
g1435
sg327
S'c:/marmalade/7.3/s3e/h/std/wchar.h'
p2147
sbsS's3eCameraCapture.h'
p2148
g301
(g1401
g303
Ntp2149
Rp2150
(dp2151
g1405
g1413
sg1406
g1618
sg327
S'c:/marmalade/7.3/s3e/h/ext/s3eCameraCapture.h'
p2152
sbsS'eglext.h'
p2153
g301
(g1401
g303
Ntp2154
Rp2155
(dp2156
g1405
g1413
sg1406
g1742
sg327
S'c:/marmalade/7.3/s3e/h/EGL/eglext.h'
p2157
sbsS'IwResHandlerImage.h'
p2158
g301
(g1401
g303
Ntp2159
Rp2160
(dp2161
g1405
g1189
sg1406
g1944
sg327
g1190
sbsS'strstream.h'
p2162
g301
(g1401
g303
Ntp2163
Rp2164
(dp2165
g1405
g1413
sg1406
g1414
sg327
S'c:/marmalade/7.3/s3e/h/std/c++/strstream.h'
p2166
sbsS'tiniconv.h'
p2167
g301
(g1401
g303
Ntp2168
Rp2169
(dp2170
g1405
g1017
sg1406
g1853
sg327
g1018
sbsS'IwGLExt.h'
p2171
g301
(g1401
g303
Ntp2172
Rp2173
(dp2174
g1405
g1067
sg1406
g1423
sg327
g1071
sbsS'app.icf'
p2175
g301
(g1401
g303
Ntp2176
Rp2177
(dp2178
g1405
(dp2179
sg1406
g4
sg327
S'd:/src/marmalade/BallGame/data/app.icf'
p2180
sbsS'IwClassFactory.h'
p2181
g301
(g1401
g303
Ntp2182
Rp2183
(dp2184
g1405
g1277
sg1406
g1442
sg327
g1375
sbsS'file.h'
p2185
g301
(g1401
g303
Ntp2186
Rp2187
(dp2188
g1405
g1413
sg1406
g1549
sg327
S'c:/marmalade/7.3/s3e/h/std/sys/file.h'
p2189
sbsS'cstring'
p2190
g301
(g1401
g303
Ntp2191
Rp2192
(dp2193
g1405
g1413
sg1406
g1414
sg327
S'c:/marmalade/7.3/s3e/h/std/c++/cstring'
p2194
sbsS'iwutil.config.txt'
p2195
g301
(g1401
g303
Ntp2196
Rp2197
(dp2198
g1405
g1277
sg1406
g1442
sg327
g1280
sbsS's3eSMS.h'
p2199
g301
(g1401
g303
Ntp2200
Rp2201
(dp2202
g1405
g1413
sg1406
g1618
sg327
S'c:/marmalade/7.3/s3e/h/ext/s3eSMS.h'
p2203
sbsS'limits.h'
p2204
g301
(g1401
g303
Ntp2205
Rp2206
(dp2207
g1405
g1413
sg1406
g1435
sg327
S'c:/marmalade/7.3/s3e/h/std/limits.h'
p2208
sbsS'iwgl.config.txt'
p2209
g301
(g1401
g303
Ntp2210
Rp2211
(dp2212
g1405
g1067
sg1406
g1423
sg327
g1073
sbsS'IwMaterial.h'
p2213
g301
(g1401
g303
Ntp2214
Rp2215
(dp2216
g1405
g1213
sg1406
g1535
sg327
g1216
sbsS'PVRTexTool_interface.cpp'
p2217
g301
(g1401
g303
Ntp2218
Rp2219
(dp2220
g1405
g1037
sg1406
g2018
sg327
g1040
sbsS'IwGxSurface.h'
p2221
g301
(g1401
g303
Ntp2222
Rp2223
(dp2224
g1405
g1213
sg1406
g1535
sg327
g1253
sbsS's3eSocket.h'
p2225
g301
(g1401
g303
Ntp2226
Rp2227
(dp2228
g1405
g1413
sg1406
g1429
sg327
S'c:/marmalade/7.3/s3e/h/s3eSocket.h'
p2229
sbsS'IwAutoFile.h'
p2230
g301
(g1401
g303
Ntp2231
Rp2232
(dp2233
g1405
g1277
sg1406
g1442
sg327
g1306
sbsS'ipc.h'
p2234
g301
(g1401
g303
Ntp2235
Rp2236
(dp2237
g1405
g1413
sg1406
g1549
sg327
S'c:/marmalade/7.3/s3e/h/std/sys/ipc.h'
p2238
sbsS'poll_1.h'
p2239
g301
(g1401
g303
Ntp2240
Rp2241
(dp2242
g1405
g1413
sg1406
g1549
sg327
S'c:/marmalade/7.3/s3e/h/std/sys/poll.h'
p2243
sbsS's3eThread.h'
p2244
g301
(g1401
g303
Ntp2245
Rp2246
(dp2247
g1405
g1413
sg1406
g1429
sg327
S'c:/marmalade/7.3/s3e/h/s3eThread.h'
p2248
sbsS'ucontext.h'
p2249
g301
(g1401
g303
Ntp2250
Rp2251
(dp2252
g1405
g1413
sg1406
g1435
sg327
S'c:/marmalade/7.3/s3e/h/std/ucontext.h'
p2253
sbsS'time.h'
p2254
g301
(g1401
g303
Ntp2255
Rp2256
(dp2257
g1405
g1413
sg1406
g1435
sg327
S'c:/marmalade/7.3/s3e/h/std/time.h'
p2258
sbsS'jchuff.h'
p2259
g301
(g1401
g303
Ntp2260
Rp2261
(dp2262
g1405
g980
sg1406
g1493
sg327
g1001
sbsS's3eSoundRecord.h'
p2263
g301
(g1401
g303
Ntp2264
Rp2265
(dp2266
g1405
g1413
sg1406
g1429
sg327
S'c:/marmalade/7.3/s3e/h/s3eSoundRecord.h'
p2267
sbsS'IwFibre.h'
p2268
g301
(g1401
g303
Ntp2269
Rp2270
(dp2271
g1405
g1277
sg1406
g1442
sg327
g1341
sbsS's3eVersion.h'
p2272
g301
(g1401
g303
Ntp2273
Rp2274
(dp2275
g1405
g1413
sg1406
g1429
sg327
S'c:/marmalade/7.3/s3e/h/s3eVersion.h'
p2276
sbsS'IwGxFontGlyph.h'
p2277
g301
(g1401
g303
Ntp2278
Rp2279
(dp2280
g1405
g1091
sg1406
g1407
sg327
g1107
sbsS's3eTypes.h'
p2281
g301
(g1401
g303
Ntp2282
Rp2283
(dp2284
g1405
g1413
sg1406
g1429
sg327
S'c:/marmalade/7.3/s3e/h/s3eTypes.h'
p2285
sbsS'signal_2.h'
p2286
g301
(g1401
g303
Ntp2287
Rp2288
(dp2289
g1405
g1413
sg1406
g1414
sg327
S'c:/marmalade/7.3/s3e/h/std/c++/signal.h'
p2290
sbsS'termios.h'
p2291
g301
(g1401
g303
Ntp2292
Rp2293
(dp2294
g1405
g1413
sg1406
g1435
sg327
S'c:/marmalade/7.3/s3e/h/std/termios.h'
p2295
sbsS'iw2dscenegraph.mkf'
p2296
g301
(g1401
g303
Ntp2297
Rp2298
(dp2299
g1405
g1055
sg1406
g1658
sg327
g1053
sbsS'slist'
p2300
g301
(g1401
g303
Ntp2301
Rp2302
(dp2303
g1405
g1413
sg1406
g1414
sg327
S'c:/marmalade/7.3/s3e/h/std/c++/slist'
p2304
sbsS'cstdlib'
p2305
g301
(g1401
g303
Ntp2306
Rp2307
(dp2308
g1405
g1413
sg1406
g1414
sg327
S'c:/marmalade/7.3/s3e/h/std/c++/cstdlib'
p2309
sbsS's3eLocation.h'
p2310
g301
(g1401
g303
Ntp2311
Rp2312
(dp2313
g1405
g1413
sg1406
g1429
sg327
S'c:/marmalade/7.3/s3e/h/s3eLocation.h'
p2314
sbsS'IwMemBucketHelpers.h'
p2315
g301
(g1401
g303
Ntp2316
Rp2317
(dp2318
g1405
g1277
sg1406
g1442
sg327
g1324
sbsS's3eHash.h'
p2319
g301
(g1401
g303
Ntp2320
Rp2321
(dp2322
g1405
g1413
sg1406
g1429
sg327
S'c:/marmalade/7.3/s3e/h/s3eHash.h'
p2323
sbsS'IwGeomFMat.h'
p2324
g301
(g1401
g303
Ntp2325
Rp2326
(dp2327
g1405
g1113
sg1406
g1463
sg327
g1116
sbsS'type_traits.h'
p2328
g301
(g1401
g303
Ntp2329
Rp2330
(dp2331
g1405
g1413
sg1406
g1414
sg327
S'c:/marmalade/7.3/s3e/h/std/c++/type_traits.h'
p2332
sbsS'IwMenu.h'
p2333
g301
(g1401
g303
Ntp2334
Rp2335
(dp2336
g1405
g1277
sg1406
g1442
sg327
g1316
sbsS'IwResHandlerITX.h'
p2337
g301
(g1401
g303
Ntp2338
Rp2339
(dp2340
g1405
g1189
sg1406
g1944
sg327
g1203
sbsS'IwArray.h'
p2341
g301
(g1401
g303
Ntp2342
Rp2343
(dp2344
g1405
g1277
sg1406
g1442
sg327
g1328
sbsS'IwUTF8.h'
p2345
g301
(g1401
g303
Ntp2346
Rp2347
(dp2348
g1405
g1277
sg1406
g1442
sg327
g1288
sbsS'math_rvct.h'
p2349
g301
(g1401
g303
Ntp2350
Rp2351
(dp2352
g1405
g1413
sg1406
g1435
sg327
S'c:/marmalade/7.3/s3e/h/std/math_rvct.h'
p2353
sbsS'IwUtil.h'
p2354
g301
(g1401
g303
Ntp2355
Rp2356
(dp2357
g1405
g1277
sg1406
g1442
sg327
g1339
sbsS'IwFColour.h'
p2358
g301
(g1401
g303
Ntp2359
Rp2360
(dp2361
g1405
g1213
sg1406
g1535
sg327
g1242
sbsS'wctype.h'
p2362
g301
(g1401
g303
Ntp2363
Rp2364
(dp2365
g1405
g1413
sg1406
g1435
sg327
S'c:/marmalade/7.3/s3e/h/std/wctype.h'
p2366
sbsS'cstddef'
p2367
g301
(g1401
g303
Ntp2368
Rp2369
(dp2370
g1405
g1413
sg1406
g1414
sg327
S'c:/marmalade/7.3/s3e/h/std/c++/cstddef'
p2371
sbsS'assert.h'
p2372
g301
(g1401
g303
Ntp2373
Rp2374
(dp2375
g1405
g1413
sg1406
g1435
sg327
S'c:/marmalade/7.3/s3e/h/std/assert.h'
p2376
sbsS'mman.h'
p2377
g301
(g1401
g303
Ntp2378
Rp2379
(dp2380
g1405
g1413
sg1406
g1549
sg327
S'c:/marmalade/7.3/s3e/h/std/sys/mman.h'
p2381
sbsS'IwRandom.h'
p2382
g301
(g1401
g303
Ntp2383
Rp2384
(dp2385
g1405
g1277
sg1406
g1442
sg327
g1369
sbsS'libgen.h'
p2386
g301
(g1401
g303
Ntp2387
Rp2388
(dp2389
g1405
g1413
sg1406
g1435
sg327
S'c:/marmalade/7.3/s3e/h/std/libgen.h'
p2390
sbsS'utsname.h'
p2391
g301
(g1401
g303
Ntp2392
Rp2393
(dp2394
g1405
g1413
sg1406
g1549
sg327
S'c:/marmalade/7.3/s3e/h/std/sys/utsname.h'
p2395
sbsS'wait.h'
p2396
g301
(g1401
g303
Ntp2397
Rp2398
(dp2399
g1405
g1413
sg1406
g1549
sg327
S'c:/marmalade/7.3/s3e/h/std/sys/wait.h'
p2400
sbsS'param.h'
p2401
g301
(g1401
g303
Ntp2402
Rp2403
(dp2404
g1405
g1413
sg1406
g1549
sg327
S'c:/marmalade/7.3/s3e/h/std/sys/param.h'
p2405
sbsS'IwDivide.h'
p2406
g301
(g1401
g303
Ntp2407
Rp2408
(dp2409
g1405
g1277
sg1406
g1442
sg327
g1335
sbsS'Iw2DSceneGraphCore.cpp'
p2410
g301
(g1401
g303
Ntp2411
Rp2412
(dp2413
g1405
g1267
sg1406
(lp2414
S"'Marmalade Studio'"
p2415
ag1263
asg327
g1271
sbsS'IwResManager.h'
p2416
g301
(g1401
g303
Ntp2417
Rp2418
(dp2419
g1405
g1189
sg1406
g1944
sg327
g1194
sbsS'ostream'
p2420
g301
(g1401
g303
Ntp2421
Rp2422
(dp2423
g1405
g1413
sg1406
g1414
sg327
S'c:/marmalade/7.3/s3e/h/std/c++/ostream'
p2424
sbsS'cwctype'
p2425
g301
(g1401
g303
Ntp2426
Rp2427
(dp2428
g1405
g1413
sg1406
g1414
sg327
S'c:/marmalade/7.3/s3e/h/std/c++/cwctype'
p2429
sbsS'Ball.h'
p2430
g301
(g1401
g303
Ntp2431
Rp2432
(dp2433
g1405
g971
sg1406
(lp2434
g967
asg327
g972
sbsS'set'
p2435
g301
(g1401
g303
Ntp2436
Rp2437
(dp2438
g1405
g1413
sg1406
g1414
sg327
S'c:/marmalade/7.3/s3e/h/std/c++/set'
p2439
sbsS'IwGeomSQuat.h'
p2440
g301
(g1401
g303
Ntp2441
Rp2442
(dp2443
g1405
g1113
sg1406
g1463
sg327
g1114
sbsS'locale'
p2444
g301
(g1401
g303
Ntp2445
Rp2446
(dp2447
g1405
g1413
sg1406
g1414
sg327
S'c:/marmalade/7.3/s3e/h/std/c++/locale'
p2448
sbsS'cstdio'
p2449
g301
(g1401
g303
Ntp2450
Rp2451
(dp2452
g1405
g1413
sg1406
g1414
sg327
S'c:/marmalade/7.3/s3e/h/std/c++/cstdio'
p2453
sbsS'cdjpeg.h'
p2454
g301
(g1401
g303
Ntp2455
Rp2456
(dp2457
g1405
g980
sg1406
g1493
sg327
g985
sbsS'IwList.h'
p2458
g301
(g1401
g303
Ntp2459
Rp2460
(dp2461
g1405
g1277
sg1406
g1442
sg327
g1284
sbsS'inttypes.h'
p2462
g301
(g1401
g303
Ntp2463
Rp2464
(dp2465
g1405
g1413
sg1406
g1435
sg327
S'c:/marmalade/7.3/s3e/h/std/inttypes.h'
p2466
sbsS'dirent.h'
p2467
g301
(g1401
g303
Ntp2468
Rp2469
(dp2470
g1405
g1413
sg1406
g1435
sg327
S'c:/marmalade/7.3/s3e/h/std/dirent.h'
p2471
sbsS'IwGeomVec3.h'
p2472
g301
(g1401
g303
Ntp2473
Rp2474
(dp2475
g1405
g1113
sg1406
g1463
sg327
g1128
sbsS'transupp.h'
p2476
g301
(g1401
g303
Ntp2477
Rp2478
(dp2479
g1405
g980
sg1406
g1493
sg327
g987
sbsS'IwMath.h'
p2480
g301
(g1401
g303
Ntp2481
Rp2482
(dp2483
g1405
g1277
sg1406
g1442
sg327
g1292
sbsS'IwGeomQuat.h'
p2484
g301
(g1401
g303
Ntp2485
Rp2486
(dp2487
g1405
g1113
sg1406
g1463
sg327
g1169
sbsS'glplatform.h'
p2488
g301
(g1401
g303
Ntp2489
Rp2490
(dp2491
g1405
g1413
sg1406
g1959
sg327
S'c:/marmalade/7.3/s3e/h/GLES/glplatform.h'
p2492
sbsS'bitset'
p2493
g301
(g1401
g303
Ntp2494
Rp2495
(dp2496
g1405
g1413
sg1406
g1414
sg327
S'c:/marmalade/7.3/s3e/h/std/c++/bitset'
p2497
sbsS'alloca.h'
p2498
g301
(g1401
g303
Ntp2499
Rp2500
(dp2501
g1405
g1413
sg1406
g1435
sg327
S'c:/marmalade/7.3/s3e/h/std/alloca.h'
p2502
sbsS'IwResHandler.h'
p2503
g301
(g1401
g303
Ntp2504
Rp2505
(dp2506
g1405
g1189
sg1406
g1944
sg327
g1187
sbsS'IwResHandlerMTL.h'
p2507
g301
(g1401
g303
Ntp2508
Rp2509
(dp2510
g1405
g1213
sg1406
g1535
sg327
g1211
sbsS'IwRuntime.h'
p2511
g301
(g1401
g303
Ntp2512
Rp2513
(dp2514
g1405
g1277
sg1406
g1442
sg327
g1300
sbsS'limits'
p2515
g301
(g1401
g303
Ntp2516
Rp2517
(dp2518
g1405
g1413
sg1406
g1414
sg327
S'c:/marmalade/7.3/s3e/h/std/c++/limits'
p2519
sbsS'IwGeomBBox.h'
p2520
g301
(g1401
g303
Ntp2521
Rp2522
(dp2523
g1405
g1113
sg1406
g1463
sg327
g1179
sbsS's3eContacts.h'
p2524
g301
(g1401
g303
Ntp2525
Rp2526
(dp2527
g1405
g1413
sg1406
g1429
sg327
S'c:/marmalade/7.3/s3e/h/s3eContacts.h'
p2528
sbsS's3eLicense.h'
p2529
g301
(g1401
g303
Ntp2530
Rp2531
(dp2532
g1405
g1413
sg1406
g1429
sg327
S'c:/marmalade/7.3/s3e/h/s3eLicense.h'
p2533
sbsS'iwgx.config.txt'
p2534
g301
(g1401
g303
Ntp2535
Rp2536
(dp2537
g1405
g1213
sg1406
g1535
sg327
g1234
sbsS'IwTextParser.h'
p2538
g301
(g1401
g303
Ntp2539
Rp2540
(dp2541
g1405
g1277
sg1406
g1442
sg327
g1294
sbsS's3eTimer.h'
p2542
g301
(g1401
g303
Ntp2543
Rp2544
(dp2545
g1405
g1413
sg1406
g1429
sg327
S'c:/marmalade/7.3/s3e/h/s3eTimer.h'
p2546
sbsS'IwGeomVec.h'
p2547
g301
(g1401
g303
Ntp2548
Rp2549
(dp2550
g1405
g1113
sg1406
g1463
sg327
g1146
sbsS'IwSerialise.h'
p2551
g301
(g1401
g303
Ntp2552
Rp2553
(dp2554
g1405
g1277
sg1406
g1442
sg327
g1304
sbsS'cstdarg'
p2555
g301
(g1401
g303
Ntp2556
Rp2557
(dp2558
g1405
g1413
sg1406
g1414
sg327
S'c:/marmalade/7.3/s3e/h/std/c++/cstdarg'
p2559
sbsS'gl2ext.h'
p2560
g301
(g1401
g303
Ntp2561
Rp2562
(dp2563
g1405
g1413
sg1406
g1650
sg327
S'c:/marmalade/7.3/s3e/h/GLES2/gl2ext.h'
p2564
sbsS'IwChar.h'
p2565
g301
(g1401
g303
Ntp2566
Rp2567
(dp2568
g1405
g1277
sg1406
g1442
sg327
g1357
sbsS's3eSound.h'
p2569
g301
(g1401
g303
Ntp2570
Rp2571
(dp2572
g1405
g1413
sg1406
g1429
sg327
S'c:/marmalade/7.3/s3e/h/s3eSound.h'
p2573
sbsS'IwOptimiseThumb.h'
p2574
g301
(g1401
g303
Ntp2575
Rp2576
(dp2577
g1405
g1277
sg1406
g1442
sg327
g1302
sbsS'exception.h'
p2578
g301
(g1401
g303
Ntp2579
Rp2580
(dp2581
g1405
g1413
sg1406
g1414
sg327
S'c:/marmalade/7.3/s3e/h/std/c++/exception.h'
p2582
sbsS'iwgeom.config.txt'
p2583
g301
(g1401
g303
Ntp2584
Rp2585
(dp2586
g1405
g1113
sg1406
g1463
sg327
g1152
sbsS'iwgx.mkf'
p2587
g301
(g1401
g303
Ntp2588
Rp2589
(dp2590
g1405
g1250
sg1406
g1535
sg327
g1248
sbsS'gl.h'
p2591
g301
(g1401
g303
Ntp2592
Rp2593
(dp2594
g1405
g1413
sg1406
g1959
sg327
S'c:/marmalade/7.3/s3e/h/GLES/gl.h'
p2595
sbsS'zlib.h'
p2596
g301
(g1401
g303
Ntp2597
Rp2598
(dp2599
g1405
g1385
sg1406
g2060
sg327
g1383
sbsS'iwgl.mkf'
p2600
g301
(g1401
g303
Ntp2601
Rp2602
(dp2603
g1405
g1070
sg1406
g1423
sg327
g1068
sbsS'IwColour.h'
p2604
g301
(g1401
g303
Ntp2605
Rp2606
(dp2607
g1405
g1213
sg1406
g1535
sg327
g1236
sbsS's3eLibrary.h'
p2608
g301
(g1401
g303
Ntp2609
Rp2610
(dp2611
g1405
g1413
sg1406
g1618
sg327
S'c:/marmalade/7.3/s3e/h/ext/s3eLibrary.h'
p2612
sbsS'types.h'
p2613
g301
(g1401
g303
Ntp2614
Rp2615
(dp2616
g1405
g1413
sg1406
g1549
sg327
S'c:/marmalade/7.3/s3e/h/std/sys/types.h'
p2617
sbsS'ifaddrs.h'
p2618
g301
(g1401
g303
Ntp2619
Rp2620
(dp2621
g1405
g1413
sg1406
g1435
sg327
S'c:/marmalade/7.3/s3e/h/std/ifaddrs.h'
p2622
sbsS'strstream'
p2623
g301
(g1401
g303
Ntp2624
Rp2625
(dp2626
g1405
g1413
sg1406
g1414
sg327
S'c:/marmalade/7.3/s3e/h/std/c++/strstream'
p2627
sbsS'IwTween.cpp'
p2628
g301
(g1401
g303
Ntp2629
Rp2630
(dp2631
g1405
g1392
sg1406
g1896
sg327
g1390
sbsS'exception'
p2632
g301
(g1401
g303
Ntp2633
Rp2634
(dp2635
g1405
g1413
sg1406
g1414
sg327
S'c:/marmalade/7.3/s3e/h/std/c++/exception'
p2636
sbsS'rlocks.h'
p2637
g301
(g1401
g303
Ntp2638
Rp2639
(dp2640
g1405
g1413
sg1406
g1414
sg327
S'c:/marmalade/7.3/s3e/h/std/c++/rlocks.h'
p2641
sbsS'ioctl.h'
p2642
g301
(g1401
g303
Ntp2643
Rp2644
(dp2645
g1405
g1413
sg1406
g1549
sg327
S'c:/marmalade/7.3/s3e/h/std/sys/ioctl.h'
p2646
sbsS'rope'
p2647
g301
(g1401
g303
Ntp2648
Rp2649
(dp2650
g1405
g1413
sg1406
g1414
sg327
S'c:/marmalade/7.3/s3e/h/std/c++/rope'
p2651
sbsS'jinclude.h'
p2652
g301
(g1401
g303
Ntp2653
Rp2654
(dp2655
g1405
g980
sg1406
g1493
sg327
g999
sbsS'IwEvent.h'
p2656
g301
(g1401
g303
Ntp2657
Rp2658
(dp2659
g1405
g1277
sg1406
g1442
sg327
g1347
sbsS'IwOptimiseSize.h'
p2660
g301
(g1401
g303
Ntp2661
Rp2662
(dp2663
g1405
g1277
sg1406
g1442
sg327
g1367
sbsS'iwgxfont_public.defines.txt'
p2664
g301
(g1401
g303
Ntp2665
Rp2666
(dp2667
g1405
g1091
sg1406
g1407
sg327
g1099
sbsS'iconv.h'
p2668
g301
(g1401
g303
Ntp2669
Rp2670
(dp2671
g1405
g1413
sg1406
g1435
sg327
S'c:/marmalade/7.3/s3e/h/std/iconv.h'
p2672
sbsS'sendfile.h'
p2673
g301
(g1401
g303
Ntp2674
Rp2675
(dp2676
g1405
g1413
sg1406
g1549
sg327
S'c:/marmalade/7.3/s3e/h/std/sys/sendfile.h'
p2677
sbsS'IwGeomSphere.h'
p2678
g301
(g1401
g303
Ntp2679
Rp2680
(dp2681
g1405
g1113
sg1406
g1463
sg327
g1136
sbsS'tiniconv.mkf'
p2682
g301
(g1401
g303
Ntp2683
Rp2684
(dp2685
g1405
g1014
sg1406
g1853
sg327
g1012
sbsS'IwResManagerClass.h'
p2686
g301
(g1401
g303
Ntp2687
Rp2688
(dp2689
g1405
g1189
sg1406
g1944
sg327
g1207
sbsS'jdct.h'
p2690
g301
(g1401
g303
Ntp2691
Rp2692
(dp2693
g1405
g980
sg1406
g1493
sg327
g993
sbsS'cctype'
p2694
g301
(g1401
g303
Ntp2695
Rp2696
(dp2697
g1405
g1413
sg1406
g1414
sg327
S'c:/marmalade/7.3/s3e/h/std/c++/cctype'
p2698
sbsS's3eConfig.h'
p2699
g301
(g1401
g303
Ntp2700
Rp2701
(dp2702
g1405
g1413
sg1406
g1429
sg327
S'c:/marmalade/7.3/s3e/h/s3eConfig.h'
p2703
sbsS'IwHashString.h'
p2704
g301
(g1401
g303
Ntp2705
Rp2706
(dp2707
g1405
g1277
sg1406
g1442
sg327
g1290
sbsS'stat.h'
p2708
g301
(g1401
g303
Ntp2709
Rp2710
(dp2711
g1405
g1413
sg1406
g1549
sg327
S'c:/marmalade/7.3/s3e/h/std/sys/stat.h'
p2712
sbsS'byteswap.h'
p2713
g301
(g1401
g303
Ntp2714
Rp2715
(dp2716
g1405
g1413
sg1406
g1435
sg327
S'c:/marmalade/7.3/s3e/h/std/byteswap.h'
p2717
sbsS'iwresmanager.mkf'
p2718
g301
(g1401
g303
Ntp2719
Rp2720
(dp2721
g1405
g1200
sg1406
g1944
sg327
g1198
sbsS'IwUtilInitTerm.h'
p2722
g301
(g1401
g303
Ntp2723
Rp2724
(dp2725
g1405
g1277
sg1406
g1442
sg327
g1282
sbsS'pthread_1.h'
p2726
g301
(g1401
g303
Ntp2727
Rp2728
(dp2729
g1405
g1413
sg1406
g1414
sg327
S'c:/marmalade/7.3/s3e/h/std/c++/pthread.h'
p2730
sbsS'iw2d.mkf'
p2731
g301
(g1401
g303
Ntp2732
Rp2733
(dp2734
g1405
g1079
sg1406
g1498
sg327
g1077
sbsS'complex'
p2735
g301
(g1401
g303
Ntp2736
Rp2737
(dp2738
g1405
g1413
sg1406
g1414
sg327
S'c:/marmalade/7.3/s3e/h/std/c++/complex'
p2739
sbsS's3e.icf'
p2740
g301
(g1401
g303
Ntp2741
Rp2742
(dp2743
g1405
g1413
sg1406
g1429
sg327
S'c:/marmalade/7.3/s3e/s3e.icf'
p2744
sbsS'IwVariableBitField.h'
p2745
g301
(g1401
g303
Ntp2746
Rp2747
(dp2748
g1405
g1277
sg1406
g1442
sg327
g1275
sbsS'sem.h'
p2749
g301
(g1401
g303
Ntp2750
Rp2751
(dp2752
g1405
g1413
sg1406
g1549
sg327
S'c:/marmalade/7.3/s3e/h/std/sys/sem.h'
p2753
sbsS'IwGxFontState.h'
p2754
g301
(g1401
g303
Ntp2755
Rp2756
(dp2757
g1405
g1091
sg1406
g1407
sg327
g1101
sbsS'stdio.h'
p2758
g301
(g1401
g303
Ntp2759
Rp2760
(dp2761
g1405
g1413
sg1406
g1435
sg327
S'c:/marmalade/7.3/s3e/h/std/stdio.h'
p2762
sbsS'jmemsys.h'
p2763
g301
(g1401
g303
Ntp2764
Rp2765
(dp2766
g1405
g980
sg1406
g1493
sg327
g981
sbsS'ios'
p2767
g301
(g1401
g303
Ntp2768
Rp2769
(dp2770
g1405
g1413
sg1406
g1414
sg327
S'c:/marmalade/7.3/s3e/h/std/c++/ios'
p2771
sbsS'IwTween.h'
p2772
g301
(g1401
g303
Ntp2773
Rp2774
(dp2775
g1405
g1392
sg1406
g1896
sg327
g1393
sbsS'IwGeomFVec4.h'
p2776
g301
(g1401
g303
Ntp2777
Rp2778
(dp2779
g1405
g1113
sg1406
g1463
sg327
g1111
sbsS'stack'
p2780
g301
(g1401
g303
Ntp2781
Rp2782
(dp2783
g1405
g1413
sg1406
g1414
sg327
S'c:/marmalade/7.3/s3e/h/std/c++/stack'
p2784
sbsS'new.h'
p2785
g301
(g1401
g303
Ntp2786
Rp2787
(dp2788
g1405
g1413
sg1406
g1414
sg327
S'c:/marmalade/7.3/s3e/h/std/c++/new.h'
p2789
sbsS's3eEMail.h'
p2790
g301
(g1401
g303
Ntp2791
Rp2792
(dp2793
g1405
g1413
sg1406
g1618
sg327
S'c:/marmalade/7.3/s3e/h/ext/s3eEMail.h'
p2794
sbsS's3eVideo.h'
p2795
g301
(g1401
g303
Ntp2796
Rp2797
(dp2798
g1405
g1413
sg1406
g1429
sg327
S'c:/marmalade/7.3/s3e/h/s3eVideo.h'
p2799
sbsS'pngconf.h'
p2800
g301
(g1401
g303
Ntp2801
Rp2802
(dp2803
g1405
g1025
sg1406
g2115
sg327
g1023
sbsS'pwd.h'
p2804
g301
(g1401
g303
Ntp2805
Rp2806
(dp2807
g1405
g1413
sg1406
g1435
sg327
S'c:/marmalade/7.3/s3e/h/std/pwd.h'
p2808
sbsS'gl3.h'
p2809
g301
(g1401
g303
Ntp2810
Rp2811
(dp2812
g1405
g1413
sg1406
g1710
sg327
S'c:/marmalade/7.3/s3e/h/GLES3/gl3.h'
p2813
sbsS'IwClip.h'
p2814
g301
(g1401
g303
Ntp2815
Rp2816
(dp2817
g1405
g1213
sg1406
g1535
sg327
g1230
sbsS'Ball.cpp'
p2818
g301
(g1401
g303
Ntp2819
Rp2820
(dp2821
g1405
g971
sg1406
g2434
sg327
g969
sbsS'iwresmanager.config.txt'
p2822
g301
(g1401
g303
Ntp2823
Rp2824
(dp2825
g1405
g1189
sg1406
g1944
sg327
g1192
sbsS'IwGxShaderTechnique.h'
p2826
g301
(g1401
g303
Ntp2827
Rp2828
(dp2829
g1405
g1213
sg1406
g1535
sg327
g1226
sbsS'IwCore.h'
p2830
g301
(g1401
g303
Ntp2831
Rp2832
(dp2833
g1405
g1277
sg1406
g1442
sg327
g1355
sbsS'cfloat'
p2834
g301
(g1401
g303
Ntp2835
Rp2836
(dp2837
g1405
g1413
sg1406
g1414
sg327
S'c:/marmalade/7.3/s3e/h/std/c++/cfloat'
p2838
sbsS'IwGeomMat2D.h'
p2839
g301
(g1401
g303
Ntp2840
Rp2841
(dp2842
g1405
g1113
sg1406
g1463
sg327
g1120
sbsS'IwAllocator.h'
p2843
g301
(g1401
g303
Ntp2844
Rp2845
(dp2846
g1405
g1277
sg1406
g1442
sg327
g1286
sbsS'BallGame.cpp'
p2847
g301
(g1401
g303
Ntp2848
Rp2849
(dp2850
g1405
g971
sg1406
(lp2851
sg327
g1047
sbsS'IwPath.h'
p2852
g301
(g1401
g303
Ntp2853
Rp2854
(dp2855
g1405
g1277
sg1406
g1442
sg327
g1310
sbsS'iwgxfont.mkf'
p2856
g301
(g1401
g303
Ntp2857
Rp2858
(dp2859
g1405
g1096
sg1406
g1407
sg327
g1094
sbsS'IwTexture.h'
p2860
g301
(g1401
g303
Ntp2861
Rp2862
(dp2863
g1405
g1213
sg1406
g1535
sg327
g1259
sbsS'IwGeomVec.h.tpl'
p2864
g301
(g1401
g303
Ntp2865
Rp2866
(dp2867
g1405
g1113
sg1406
g1463
sg327
g1183
sbsS's3eAccelerometer.h'
p2868
g301
(g1401
g303
Ntp2869
Rp2870
(dp2871
g1405
g1413
sg1406
g1429
sg327
S'c:/marmalade/7.3/s3e/h/s3eAccelerometer.h'
p2872
sbsS'setjmp.h'
p2873
g301
(g1401
g303
Ntp2874
Rp2875
(dp2876
g1405
g1413
sg1406
g1435
sg327
S'c:/marmalade/7.3/s3e/h/std/setjmp.h'
p2877
sbsS'IwFile.h'
p2878
g301
(g1401
g303
Ntp2879
Rp2880
(dp2881
g1405
g1277
sg1406
g1442
sg327
g1312
sbsS'IwTextParseable.h'
p2882
g301
(g1401
g303
Ntp2883
Rp2884
(dp2885
g1405
g1277
sg1406
g1442
sg327
g1314
sbsS'istream.h'
p2886
g301
(g1401
g303
Ntp2887
Rp2888
(dp2889
g1405
g1413
sg1406
g1414
sg327
S'c:/marmalade/7.3/s3e/h/std/c++/istream.h'
p2890
sbsS'stdint.h'
p2891
g301
(g1401
g303
Ntp2892
Rp2893
(dp2894
g1405
g1413
sg1406
g1435
sg327
S'c:/marmalade/7.3/s3e/h/std/stdint.h'
p2895
sbsS'semaphore.h'
p2896
g301
(g1401
g303
Ntp2897
Rp2898
(dp2899
g1405
g1413
sg1406
g1435
sg327
S'c:/marmalade/7.3/s3e/h/std/semaphore.h'
p2900
sbsS'ctime'
p2901
g301
(g1401
g303
Ntp2902
Rp2903
(dp2904
g1405
g1413
sg1406
g1414
sg327
S'c:/marmalade/7.3/s3e/h/std/c++/ctime'
p2905
sbsS'sstream'
p2906
g301
(g1401
g303
Ntp2907
Rp2908
(dp2909
g1405
g1413
sg1406
g1414
sg327
S'c:/marmalade/7.3/s3e/h/std/c++/sstream'
p2910
sbsS'IwGeomFBBox.h'
p2911
g301
(g1401
g303
Ntp2912
Rp2913
(dp2914
g1405
g1113
sg1406
g1463
sg327
g1148
sbsS'IwDebugPrim.h'
p2915
g301
(g1401
g303
Ntp2916
Rp2917
(dp2918
g1405
g1213
sg1406
g1535
sg327
g1218
sbsS'IwGxFontContainer.h'
p2919
g301
(g1401
g303
Ntp2920
Rp2921
(dp2922
g1405
g1091
sg1406
g1407
sg327
g1103
sbsS'IwGeomSVec3.h'
p2923
g301
(g1401
g303
Ntp2924
Rp2925
(dp2926
g1405
g1113
sg1406
g1463
sg327
g1161
sbsS'iw2dscenegraphcore.mkf'
p2927
g301
(g1401
g303
Ntp2928
Rp2929
(dp2930
g1405
g1270
sg1406
g2414
sg327
g1268
sbsS'cassert'
p2931
g301
(g1401
g303
Ntp2932
Rp2933
(dp2934
g1405
g1413
sg1406
g1414
sg327
S'c:/marmalade/7.3/s3e/h/std/c++/cassert'
p2935
sbsS'IwGeomFVec3.h'
p2936
g301
(g1401
g303
Ntp2937
Rp2938
(dp2939
g1405
g1113
sg1406
g1463
sg327
g1126
sbsS'streambuf'
p2940
g301
(g1401
g303
Ntp2941
Rp2942
(dp2943
g1405
g1413
sg1406
g1414
sg327
S'c:/marmalade/7.3/s3e/h/std/c++/streambuf'
p2944
sbsS's3eMetrics.h'
p2945
g301
(g1401
g303
Ntp2946
Rp2947
(dp2948
g1405
g1413
sg1406
g1618
sg327
S'c:/marmalade/7.3/s3e/h/ext/s3eMetrics.h'
p2949
sbsS'IwGxFont.h'
p2950
g301
(g1401
g303
Ntp2951
Rp2952
(dp2953
g1405
g1091
sg1406
g1407
sg327
g1089
sbsS's3eSecureStorage.h'
p2954
g301
(g1401
g303
Ntp2955
Rp2956
(dp2957
g1405
g1413
sg1406
g1429
sg327
S'c:/marmalade/7.3/s3e/h/s3eSecureStorage.h'
p2958
sbsS'string.h'
p2959
g301
(g1401
g303
Ntp2960
Rp2961
(dp2962
g1405
g1413
sg1406
g1435
sg327
S'c:/marmalade/7.3/s3e/h/std/string.h'
p2963
sbsS'IwResource.h'
p2964
g301
(g1401
g303
Ntp2965
Rp2966
(dp2967
g1405
g1277
sg1406
g1442
sg327
g1371
sbsS'IwGeomSVec2.h'
p2968
g301
(g1401
g303
Ntp2969
Rp2970
(dp2971
g1405
g1113
sg1406
g1463
sg327
g1181
sbsS'libjpeg.mkf'
p2972
g301
(g1401
g303
Ntp2973
Rp2974
(dp2975
g1405
g1009
sg1406
(lp2976
g974
asg327
g1007
sbsS'IwGxDebug.h'
p2977
g301
(g1401
g303
Ntp2978
Rp2979
(dp2980
g1405
g1213
sg1406
g1535
sg327
g1257
sbsS'pthread_types.h'
p2981
g301
(g1401
g303
Ntp2982
Rp2983
(dp2984
g1405
g1413
sg1406
g1435
sg327
S'c:/marmalade/7.3/s3e/h/std/pthread_types.h'
p2985
sbsS'iomanip.h'
p2986
g301
(g1401
g303
Ntp2987
Rp2988
(dp2989
g1405
g1413
sg1406
g1414
sg327
S'c:/marmalade/7.3/s3e/h/std/c++/iomanip.h'
p2990
sbsS'IwKeymap.h'
p2991
g301
(g1401
g303
Ntp2992
Rp2993
(dp2994
g1405
g1277
sg1406
g1442
sg327
g1353
sbsS'IwDebug.h'
p2995
g301
(g1401
g303
Ntp2996
Rp2997
(dp2998
g1405
g1277
sg1406
g1442
sg327
g1326
sbsS's3eIOSBackgroundAudio.h'
p2999
g301
(g1401
g303
Ntp3000
Rp3001
(dp3002
g1405
g1413
sg1406
g1618
sg327
S'c:/marmalade/7.3/s3e/h/ext/s3eIOSBackgroundAudio.h'
p3003
sbsS'IwGeomMenu.h'
p3004
g301
(g1401
g303
Ntp3005
Rp3006
(dp3007
g1405
g1113
sg1406
g1463
sg327
g1118
sbsS'IwDivTable.h'
p3008
g301
(g1401
g303
Ntp3009
Rp3010
(dp3011
g1405
g1277
sg1406
g1442
sg327
g1322
sbsS'ctype.h'
p3012
g301
(g1401
g303
Ntp3013
Rp3014
(dp3015
g1405
g1413
sg1406
g1435
sg327
S'c:/marmalade/7.3/s3e/h/std/ctype.h'
p3016
sbsS'IwGeomMat.h'
p3017
g301
(g1401
g303
Ntp3018
Rp3019
(dp3020
g1405
g1113
sg1406
g1463
sg327
g1163
sbsS'IwResGroup.h'
p3021
g301
(g1401
g303
Ntp3022
Rp3023
(dp3024
g1405
g1189
sg1406
g1944
sg327
g1201
sbsS'signal_1.h'
p3025
g301
(g1401
g303
Ntp3026
Rp3027
(dp3028
g1405
g1413
sg1406
g1549
sg327
S'c:/marmalade/7.3/s3e/h/std/sys/signal.h'
p3029
sbsS'functional'
p3030
g301
(g1401
g303
Ntp3031
Rp3032
(dp3033
g1405
g1413
sg1406
g1414
sg327
S'c:/marmalade/7.3/s3e/h/std/c++/functional'
p3034
sbsS'shm.h'
p3035
g301
(g1401
g303
Ntp3036
Rp3037
(dp3038
g1405
g1413
sg1406
g1549
sg327
S'c:/marmalade/7.3/s3e/h/std/sys/shm.h'
p3039
sbsS'IwManagedList.h'
p3040
g301
(g1401
g303
Ntp3041
Rp3042
(dp3043
g1405
g1277
sg1406
g1442
sg327
g1278
sbsS'prctl.h'
p3044
g301
(g1401
g303
Ntp3045
Rp3046
(dp3047
g1405
g1413
sg1406
g1549
sg327
S'c:/marmalade/7.3/s3e/h/std/sys/prctl.h'
p3048
sbsS'un.h'
p3049
g301
(g1401
g303
Ntp3050
Rp3051
(dp3052
g1405
g1413
sg1406
g1549
sg327
S'c:/marmalade/7.3/s3e/h/std/sys/un.h'
p3053
sbsS'utility'
p3054
g301
(g1401
g303
Ntp3055
Rp3056
(dp3057
g1405
g1413
sg1406
g1414
sg327
S'c:/marmalade/7.3/s3e/h/std/c++/utility'
p3058
sbsS'IwGeomLegacy.h'
p3059
g301
(g1401
g303
Ntp3060
Rp3061
(dp3062
g1405
g1113
sg1406
g1463
sg327
g1138
sbsS'IwTPage.h'
p3063
g301
(g1401
g303
Ntp3064
Rp3065
(dp3066
g1405
g1213
sg1406
g1535
sg327
g1232
sbsS'IwResSerialise.h'
p3067
g301
(g1401
g303
Ntp3068
Rp3069
(dp3070
g1405
g1189
sg1406
g1944
sg327
g1196
sbsS's3eCrypto.h'
p3071
g301
(g1401
g303
Ntp3072
Rp3073
(dp3074
g1405
g1413
sg1406
g1429
sg327
S'c:/marmalade/7.3/s3e/h/s3eCrypto.h'
p3075
sbsS's3eKeyboard.h'
p3076
g301
(g1401
g303
Ntp3077
Rp3078
(dp3079
g1405
g1413
sg1406
g1429
sg327
S'c:/marmalade/7.3/s3e/h/s3eKeyboard.h'
p3080
sbsS'fcntl.h'
p3081
g301
(g1401
g303
Ntp3082
Rp3083
(dp3084
g1405
g1413
sg1406
g1435
sg327
S'c:/marmalade/7.3/s3e/h/std/fcntl.h'
p3085
sbsS'Iw2DSceneGraphCore.h'
p3086
g301
(g1401
g303
Ntp3087
Rp3088
(dp3089
g1405
g1267
sg1406
g2414
sg327
g1265
sbsS'memory.h'
p3090
g301
(g1401
g303
Ntp3091
Rp3092
(dp3093
g1405
g1413
sg1406
g1435
sg327
S'c:/marmalade/7.3/s3e/h/std/memory.h'
p3094
sbsS'pthread.h'
p3095
g301
(g1401
g303
Ntp3096
Rp3097
(dp3098
g1405
g1413
sg1406
g1435
sg327
S'c:/marmalade/7.3/s3e/h/std/pthread.h'
p3099
sbsS'IwGeomIntersect.h'
p3100
g301
(g1401
g303
Ntp3101
Rp3102
(dp3103
g1405
g1113
sg1406
g1463
sg327
g1171
sbsS'algorithm'
p3104
g301
(g1401
g303
Ntp3105
Rp3106
(dp3107
g1405
g1413
sg1406
g1414
sg327
S'c:/marmalade/7.3/s3e/h/std/c++/algorithm'
p3108
sbsS'egl_1.h'
p3109
g301
(g1401
g303
Ntp3110
Rp3111
(dp3112
g1405
g1413
sg1406
g1959
sg327
S'c:/marmalade/7.3/s3e/h/GLES/egl.h'
p3113
sbsS'Iw2DSceneGraph.cpp'
p3114
g301
(g1401
g303
Ntp3115
Rp3116
(dp3117
g1405
g1058
sg1406
g1658
sg327
g1059
sbsS'ostream.h'
p3118
g301
(g1401
g303
Ntp3119
Rp3120
(dp3121
g1405
g1413
sg1406
g1414
sg327
S'c:/marmalade/7.3/s3e/h/std/c++/ostream.h'
p3122
sbsS'stl_user_config.h'
p3123
g301
(g1401
g303
Ntp3124
Rp3125
(dp3126
g1405
g1413
sg1406
g1414
sg327
S'c:/marmalade/7.3/s3e/h/std/c++/stl_user_config.h'
p3127
sbsS'IwProfileMenu.h'
p3128
g301
(g1401
g303
Ntp3129
Rp3130
(dp3131
g1405
g1277
sg1406
g1442
sg327
g1320
sbsS'MarmaladeVersion.h'
p3132
g301
(g1401
g303
Ntp3133
Rp3134
(dp3135
g1405
g1413
sg1406
g1429
sg327
S'c:/marmalade/7.3/s3e/h/MarmaladeVersion.h'
p3136
sbsS'gl3platform.h'
p3137
g301
(g1401
g303
Ntp3138
Rp3139
(dp3140
g1405
g1413
sg1406
g1710
sg327
S'c:/marmalade/7.3/s3e/h/GLES3/gl3platform.h'
p3141
sbsS'ios.h'
p3142
g301
(g1401
g303
Ntp3143
Rp3144
(dp3145
g1405
g1413
sg1406
g1414
sg327
S'c:/marmalade/7.3/s3e/h/std/c++/ios.h'
p3146
sbsS'IwImageHelper.h'
p3147
g301
(g1401
g303
Ntp3148
Rp3149
(dp3150
g1405
g1277
sg1406
g1442
sg327
g1343
sbsS'hash_set'
p3151
g301
(g1401
g303
Ntp3152
Rp3153
(dp3154
g1405
g1413
sg1406
g1414
sg327
S'c:/marmalade/7.3/s3e/h/std/c++/hash_set'
p3155
sbsS'IwGeomFQuat.h'
p3156
g301
(g1401
g303
Ntp3157
Rp3158
(dp3159
g1405
g1113
sg1406
g1463
sg327
g1157
sbsS'jmorecfg.h'
p3160
g301
(g1401
g303
Ntp3161
Rp3162
(dp3163
g1405
g980
sg1406
g1493
sg327
g997
sbsS'eglplatform.h'
p3164
g301
(g1401
g303
Ntp3165
Rp3166
(dp3167
g1405
g1413
sg1406
g1742
sg327
S'c:/marmalade/7.3/s3e/h/EGL/eglplatform.h'
p3168
sbsS'cmath'
p3169
g301
(g1401
g303
Ntp3170
Rp3171
(dp3172
g1405
g1413
sg1406
g1414
sg327
S'c:/marmalade/7.3/s3e/h/std/c++/cmath'
p3173
sbsS'math_gcc.h'
p3174
g301
(g1401
g303
Ntp3175
Rp3176
(dp3177
g1405
g1413
sg1406
g1435
sg327
S'c:/marmalade/7.3/s3e/h/std/math_gcc.h'
p3178
sbsS's3eMemory.h'
p3179
g301
(g1401
g303
Ntp3180
Rp3181
(dp3182
g1405
g1413
sg1406
g1429
sg327
S'c:/marmalade/7.3/s3e/h/s3eMemory.h'
p3183
sbsS'strings.h'
p3184
g301
(g1401
g303
Ntp3185
Rp3186
(dp3187
g1405
g1413
sg1406
g1435
sg327
S'c:/marmalade/7.3/s3e/h/std/strings.h'
p3188
sbsS's3eFile.h'
p3189
g301
(g1401
g303
Ntp3190
Rp3191
(dp3192
g1405
g1413
sg1406
g1429
sg327
S'c:/marmalade/7.3/s3e/h/s3eFile.h'
p3193
sbsS'IwGxTypes.h'
p3194
g301
(g1401
g303
Ntp3195
Rp3196
(dp3197
g1405
g1213
sg1406
g1535
sg327
g1214
sbsS'cerrno'
p3198
g301
(g1401
g303
Ntp3199
Rp3200
(dp3201
g1405
g1413
sg1406
g1414
sg327
S'c:/marmalade/7.3/s3e/h/std/c++/cerrno'
p3202
sbsS'resource.h'
p3203
g301
(g1401
g303
Ntp3204
Rp3205
(dp3206
g1405
g1413
sg1406
g1549
sg327
S'c:/marmalade/7.3/s3e/h/std/sys/resource.h'
p3207
sbsS'clocale'
p3208
g301
(g1401
g303
Ntp3209
Rp3210
(dp3211
g1405
g1413
sg1406
g1414
sg327
S'c:/marmalade/7.3/s3e/h/std/c++/clocale'
p3212
sbsS'pvrtextool.mkf'
p3213
g301
(g1401
g303
Ntp3214
Rp3215
(dp3216
g1405
g1046
sg1406
g1991
sg327
g1044
sbsS'csetjmp'
p3217
g301
(g1401
g303
Ntp3218
Rp3219
(dp3220
g1405
g1413
sg1406
g1414
sg327
S'c:/marmalade/7.3/s3e/h/std/c++/csetjmp'
p3221
sbsS'netdb.h'
p3222
g301
(g1401
g303
Ntp3223
Rp3224
(dp3225
g1405
g1413
sg1406
g1435
sg327
S'c:/marmalade/7.3/s3e/h/std/netdb.h'
p3226
sbsS's3eAndroidJNI.h'
p3227
g301
(g1401
g303
Ntp3228
Rp3229
(dp3230
g1405
g1413
sg1406
g1618
sg327
S'c:/marmalade/7.3/s3e/h/ext/s3eAndroidJNI.h'
p3231
sbsS'stdexcept'
p3232
g301
(g1401
g303
Ntp3233
Rp3234
(dp3235
g1405
g1413
sg1406
g1414
sg327
S'c:/marmalade/7.3/s3e/h/std/c++/stdexcept'
p3236
sbsS'math.h'
p3237
g301
(g1401
g303
Ntp3238
Rp3239
(dp3240
g1405
g1413
sg1406
g1435
sg327
S'c:/marmalade/7.3/s3e/h/std/math.h'
p3241
sbsS'stdbool.h'
p3242
g301
(g1401
g303
Ntp3243
Rp3244
(dp3245
g1405
g1413
sg1406
g1435
sg327
S'c:/marmalade/7.3/s3e/h/std/stdbool.h'
p3246
sbsS'uio.h'
p3247
g301
(g1401
g303
Ntp3248
Rp3249
(dp3250
g1405
g1413
sg1406
g1549
sg327
S'c:/marmalade/7.3/s3e/h/std/sys/uio.h'
p3251
sbsS'IwUncopyable.h'
p3252
g301
(g1401
g303
Ntp3253
Rp3254
(dp3255
g1405
g1277
sg1406
g1442
sg327
g1373
sbssS'juice_build_type'
p3256
g4
sS'tests'
p3257
(lp3258
sS'project_name'
p3259
g309
sS'root_file'
p3260
g121
sS'current_root'
p3261
S'd:/src/marmalade/BallGame'
p3262
sS'dependencies'
p3263
(lp3264
sS'include_paths'
p3265
(lp3266
S'c:/marmalade/7.3/modules/iwutil/h'
p3267
aS'c:/marmalade/7.3/modules/third_party/libjpeg/h'
p3268
aS'c:/marmalade/7.3/modules/third_party/zlib/h'
p3269
aS'c:/marmalade/7.3/modules/third_party/libpng/h'
p3270
aS'c:/marmalade/7.3/modules/iw2dscenegraphcore/h'
p3271
aS'c:/marmalade/7.3/modules/iw2dscenegraph/h'
p3272
aS'c:/marmalade/7.3/modules/iw2d/h'
p3273
aS'c:/marmalade/7.3/modules/iwgx/h'
p3274
aS'c:/marmalade/7.3/modules/iwgl/h'
p3275
aS'c:/marmalade/7.3/modules/iwgeom/h'
p3276
aS'c:/marmalade/7.3/modules/iwresmanager/h'
p3277
aS'c:/marmalade/7.3/extensions/pvrtextool/h'
p3278
aS'c:/marmalade/7.3/modules/iwgxfont/h'
p3279
aS'c:/marmalade/7.3/modules/third_party/tiniconv/source'
p3280
aS'c:/marmalade/7.3/modules/iwtween/h'
p3281
aS'c:/marmalade/7.3/s3e/h'
p3282
aS'c:/marmalade/7.3/s3e/h/ext'
p3283
aS'c:/marmalade/7.3/s3e/h/std'
p3284
aS'c:/marmalade/7.3/s3e/h/std/c++'
p3285
aS'c:/marmalade/7.3/s3e/h/ext_legacy'
p3286
aS'c:/marmalade/7.3/s3e/h/legacy'
p3287
asS'weak_frameworks'
p3288
(lp3289
sS'extprojects'
p3290
(dp3291
sg565
(dp3292
g559
(lp3293
(g79
S'.'
p3294
I0
tp3295
assS'macro_types'
p3296
(dp3297
g500
I1
sg501
I0
sg502
I0
sg503
I0
sg504
I0
sg505
I0
sg506
I0
sg507
I0
sg508
I0
sg510
I0
sg511
I0
sg512
I0
sg513
I0
sg514
I0
sg516
I0
sg518
I0
sg519
I0
sg520
I0
sg521
I0
sg522
I0
sg523
I1
sg524
I0
sg525
I0
sg526
I0
sg527
I0
sg528
I01
sg529
I1
sg530
I0
sg531
I0
sg532
I0
sg533
I0
sg534
I0
sg536
I0
sg537
I0
ssS'commands'
p3298
(lp3299
sg567
(g960
S'VC12X'
p3300
S'X86ARM'
p3301
tp3302
sS'build_libs'
p3303
(dp3304
sg569
g0
sS'frameworks'
p3305
(lp3306
sS'environ'
p3307
(dp3308
sS'target_name_debug'
p3309
g309
sS'builders'
p3310
(dp3311
g559
(dp3312
S'.S'
p3313
(dp3314
S'rvct'
p3315
(lp3316
S'.obj'
p3317
aS'echo ARM Assembling(RVCT) ${SOURCE}...'
p3318
aS'c:/marmalade/7.3/s3e\\rvct\\bin\\armasm -o ${TARGET} ${SOURCE}'
p3319
asg423
(lp3320
g3317
aS'echo ARM Assembling(GCC) ${SOURCE}...'
p3321
aS'c:/marmalade/7.3/s3e\\gcc\\bin\\arm-none-eabi-gcc -c -o ${TARGET} ${SOURCE}'
p3322
asS'ppu'
p3323
(lp3324
S'.a'
p3325
aS'echo PPU Assembling(SNC) ${SOURCE}...'
p3326
aS'c:/marmalade/7.3/s3e\\rvct\\bin\\armasm -o ${TARGET} ${SOURCE}'
p3327
assS'.s'
p3328
g3314
sS'.vp'
p3329
(lp3330
NaS'"C:/Marmalade/7.3/s3e/python/python.exe" "c:/marmalade/7.3/modules/iwgx/tools/compile_shaders.py" ${SOURCE}'
p3331
asssS'extproject_names'
p3332
(lp3333
sbtp3334
.