((dp0
S'arm_dbg_args'
p1
S'-via:"d:\\src\\marmalade\\BallGame\\build_ballgame_vc12x\\BallGame_vc12x_arm_debug.via" -qemu'
p2
sS'game-icf'
p3
S''
p4
sS'dist'
p5
NsS'csproj'
p6
g4
sS'module_path_append'
p7
NsS'global_path'
p8
S'd:\\src\\marmalade'
p9
sS'system_path'
p10
S'c:\\marmalade\\7.3\\s3e\\makefile_builder'
p11
sS'android_x86_dbg_args'
p12
S'../../tools/DeployTool/DeployTool.exe --dir "d:\\src\\marmalade\\BallGame\\build_ballgame_vc12x"'
p13
sS'no-emit'
p14
NsS'arm-float-abi'
p15
g4
sS'arm_rel_rtsm_args'
p16
S'-via:"d:\\src\\marmalade\\BallGame\\build_ballgame_vc12x\\BallGame_vc12x_arm_release.via" -qemu'
p17
sS'amd64'
p18
NsS'line-width'
p19
I80
sS'gcc_dbg_args'
p20
S'-via:"d:\\src\\marmalade\\BallGame\\build_ballgame_vc12x\\BallGame_vc12x_gcc_debug.via" -qemu'
p21
sS'android-x86'
p22
NsS'x86_dbg_exe'
p23
S'c:/marmalade/7.3/s3e\\win32\\s3e_simulator_debug.exe'
p24
sS'disable-runtime-checks'
p25
NsS'release'
p26
NsS'no-make'
p27
NsS'xcode-x86-build-settings'
p28
g4
sS'optimise-size'
p29
NsS'output-name-debug'
p30
g4
sS'arm-fpu'
p31
g4
sS'proj_name'
p32
S'BallGame_vc12x'
p33
sS'rvct-version'
p34
S'none'
p35
sS'compiler'
p36
g4
sS'execute'
p37
NsS'compile-static'
p38
NsS'msvc-project'
p39
NsS'buildenv'
p40
S'VC12X'
p41
sS'quick'
p42
NsS'module_path'
p43
NsS'use-release-std-libs'
p44
NsS'using_perforce'
p45
I00
sS'tizen-x86'
p46
NsS'mips-s3e'
p47
NsS's3e-api-lib-name'
p48
S's3e_api_iwgl'
p49
sS'ios-no-pic'
p50
NsS'shared-arm-lib'
p51
NsS'arm-cpu'
p52
g4
sS'compile-thumb'
p53
NsS'no-ide'
p54
NsS'msvc-version'
p55
S'6.0'
p56
sS'arm'
p57
NsS'builddir'
p58
g4
sS'compile-debug-as-release'
p59
I0
sS'arm-arch'
p60
g4
sS'brief'
p61
NsS'dll'
p62
NsS'buildenv-toolset'
p63
g4
sS'version'
p64
NsS'ccache'
p65
I0
sS'offline'
p66
NsS'ios-version'
p67
g4
sS'hub_data'
p68
g4
sS'fake_vc_call'
p69
I01
sS'jobs'
p70
I0
sS'linkflags'
p71
NsS'debug'
p72
NsS'xcode-build-order'
p73
g4
sS'gcc_rel_rtsm_args'
p74
S'-via:"d:\\src\\marmalade\\BallGame\\build_ballgame_vc12x\\BallGame_vc12x_gcc_release.via" -qemu'
p75
sS'done_defaults'
p76
I1
sS'path'
p77
NsS's3e-data-dir'
p78
S'd:/src/marmalade/BallGame\\data'
p79
sS'enable-exceptions'
p80
NsS'osx-dll'
p81
NsS'extension'
p82
g4
sS'no-vc6'
p83
NsS'non-interactive'
p84
NsS'win32-console'
p85
NsS'dist-format'
p86
g4
sS's3e-force-arch'
p87
NsS'dump_defines'
p88
NsS'use_prebuilt'
p89
NsS'gcc-version'
p90
g4
sS'x86_dbg_args'
p91
S'-via:"d:\\src\\marmalade\\BallGame\\build_ballgame_vc12x\\BallGame_vc12x_debug.via"'
p92
sS'tizen_x86_dbg_args'
p93
g13
sS'arm-debugger'
p94
g4
sS'use_temp_extension'
p95
NsS'verbose'
p96
I0
sS'log'
p97
NsS'no-strip'
p98
NsS'rebuild'
p99
NsS'win32-simulator-dll'
p100
NsS'strict'
p101
NsS'mips_dbg_args'
p102
g13
sS'enable-global-path'
p103
NsS'cflags'
p104
NsS'dist-dir'
p105
g4
sS'xcode-arm-build-settings'
p106
g4
sS'jflags'
p107
NsS'csprojSDKRefs'
p108
g4
sS'tizen_x86_rel_exe'
p109
S'c:\\marmalade\\7.3\\s3e\\makefile_builder\\tool_launcher.exe'
p110
sS'test-assets'
p111
g4
sS'distcc'
p112
NsS'external-compiler'
p113
NsS'no-distcc'
p114
NsS'preinclude'
p115
NsS'using_sdk'
p116
I01
sS'nologo'
p117
NsS'warn-level'
p118
I2
sS'mips_dbg_exe'
p119
g110
sS'mkb_in'
p120
S'd:/src/marmalade/BallGame/BallGame.mkb'
p121
sS'tizen_x86_dbg_exe'
p122
g110
sS'arm_dbg_exe'
p123
S'c:/marmalade/7.3/s3e\\bin\\armdebug.exe'
p124
sS'csprojDLLRef'
p125
NsS'tizen_x86_rel_args'
p126
g13
sS'android_x86_dbg_exe'
p127
g110
sS'test-config'
p128
g4
sS'list-targets'
p129
NsS'arm_rel_exe'
p130
g110
sS'arm_rel_args'
p131
g13
sS'makedeps'
p132
NsS'android_x86_rel_exe'
p133
g110
sS'default-buildenv'
p134
S'VC12X'
p135
sS'x86_rel_exe'
p136
g24
sS'preprocess-java'
p137
NsS'mips_rel_args'
p138
g13
sS'defines'
p139
NsS'lib'
p140
NsS'global_argv'
p141
(lp142
S'C:\\Marmalade\\7.3\\s3e\\makefile_builder\\mkb.py'
p143
aS'D:/src/marmalade/BallGame/BallGame.mkb'
p144
aS'--buildenv=VC12X'
p145
aS'--fake-vc-call'
p146
asS'make'
p147
NsS'optimise-speed'
p148
NsS'internal'
p149
NsS'enable-stdinc'
p150
NsS'deploy-only'
p151
NsS'x86'
p152
NsS'deploy'
p153
g4
sS'x86_run_exe'
p154
S'c:/marmalade/7.3/s3e\\win32\\s3e_console.exe'
p155
sS'x86_rel_args'
p156
S'-via:"d:\\src\\marmalade\\BallGame\\build_ballgame_vc12x\\BallGame_vc12x_release.via"'
p157
sS'gcc_rel_args'
p158
g13
sS'mips'
p159
NsS'xcode-build-settings'
p160
g4
sS'incredibuild'
p161
NsS'strict-compile'
p162
NsS'use-auto-subdirs'
p163
NsS'mips_rel_exe'
p164
g110
sS'android_x86_rel_args'
p165
g13
sS'app-icf'
p166
g4
sS'deployargs'
p167
NsS'iosnativedebug'
p168
NsS'mkf_in'
p169
(lp170
S'c:\\marmalade\\7.3\\modules\\iwutil\\iwutil.mkf'
p171
aS'c:\\marmalade\\7.3\\modules\\third_party\\libjpeg\\libjpeg.mkf'
p172
aS'c:\\marmalade\\7.3\\modules\\third_party\\libpng\\libpng.mkf'
p173
aS'c:\\marmalade\\7.3\\modules\\third_party\\zlib\\zlib.mkf'
p174
aS'c:\\marmalade\\7.3\\modules\\iw2dscenegraphcore\\iw2dscenegraphcore.mkf'
p175
aS'c:\\marmalade\\7.3\\modules\\iw2dscenegraph\\iw2dscenegraph.mkf'
p176
aS'c:\\marmalade\\7.3\\modules\\iw2d\\iw2d.mkf'
p177
aS'c:\\marmalade\\7.3\\modules\\iwgx\\iwgx.mkf'
p178
aS'c:\\marmalade\\7.3\\modules\\iwgl\\iwgl.mkf'
p179
aS'c:\\marmalade\\7.3\\modules\\iwgeom\\iwgeom.mkf'
p180
aS'c:\\marmalade\\7.3\\modules\\iwresmanager\\iwresmanager.mkf'
p181
aS'c:\\marmalade\\7.3\\extensions\\pvrtextool\\pvrtextool.mkf'
p182
aS'c:\\marmalade\\7.3\\modules\\iwgxfont\\iwgxfont.mkf'
p183
aS'c:\\marmalade\\7.3\\modules\\third_party\\tiniconv\\tiniconv.mkf'
p184
aS'c:\\marmalade\\7.3\\modules\\iwtween\\iwtween.mkf'
p185
asS'strict-mkb'
p186
NsS'executeargs'
p187
NsS'clean'
p188
NsS'no-asm'
p189
NsS'output-name'
p190
g4
sS'no-modules'
p191
NsS'find_define'
p192
g4
s(dp193
S'c:\\marmalade\\7.3\\s3e\\makefile_builder\\templates\\xcode_pbxuser.py'
p194
F1404462948.0
sS'c:\\marmalade\\7.3\\s3e\\makefile_builder\\plugins\\s3e_xcode.pyc'
p195
F1406554690.3000362
sS'c:\\marmalade\\7.3\\s3e\\makefile_builder\\plugins\\osx_scons.pyc'
p196
F1404464240.0
sS'c:\\marmalade\\7.3\\s3e\\makefile_builder\\extensions'
p197
F1406553858.5113974
sS'c:\\marmalade\\7.3\\s3e\\makefile_builder\\templates\\win8_sln.pyc'
p198
F1404464240.0
sS'c:\\marmalade\\7.3\\s3e\\makefile_builder\\plugins\\s3e_wp8.pyc'
p199
F1404464240.0
sS'c:\\marmalade\\7.3\\s3e\\makefile_builder\\mkb_launcher.exe'
p200
F1404463306.0
sS'c:\\marmalade\\7.3\\s3e\\makefile_builder\\plugins\\null.pyc'
p201
F1404464240.0
sS'c:\\marmalade\\7.3\\s3e\\makefile_builder\\plugins\\s3e_web.pyc'
p202
F1404464240.0
sS'c:\\marmalade\\7.3\\s3e\\makefile_builder\\plugins\\SConsEmitter.pyc'
p203
F1404464240.0
sS'c:\\marmalade\\7.3\\s3e\\makefile_builder\\mkb_util.pyc'
p204
F1404464240.0
sS'c:\\marmalade\\7.3\\s3e\\makefile_builder\\templates\\ws8_csproj_user.pyc'
p205
F1404464240.0
sS'c:\\marmalade\\7.3\\s3e\\makefile_builder\\mkb_upstream.pyc'
p206
F1404464240.0
sS'c:\\marmalade\\7.3\\s3e\\makefile_builder\\templates\\win8_csproj.pyc'
p207
F1404464240.0
sS'c:\\marmalade\\7.3\\s3e\\makefile_builder\\docs\\deprecated.options.txt'
p208
F1404462948.0
sS'c:\\marmalade\\7.3\\s3e\\makefile_builder\\templates\\wp8_csproj_user.pyc'
p209
F1404464240.0
sS'c:\\marmalade\\7.3\\s3e\\makefile_builder\\extensions\\make_dist.py'
p210
F1404462948.0
sS'c:\\marmalade\\7.3\\s3e\\makefile_builder\\docs\\deprecated.defines.txt'
p211
F1404462948.0
sS'c:\\marmalade\\7.3\\s3e\\makefile_builder\\templates\\wp8_csproj.pyc'
p212
F1404464240.0
sS'c:\\marmalade\\7.3\\s3e\\makefile_builder\\templates\\vc8_user.pyc'
p213
F1404464240.0
sS'c:\\marmalade\\7.3\\s3e\\makefile_builder\\plugins\\wp8_wp8.pyc'
p214
F1404464240.0
sS'c:\\marmalade\\7.3\\s3e\\makefile_builder\\deployment.pyc'
p215
F1404464240.0
sS'c:\\marmalade\\7.3\\s3e\\makefile_builder\\docs\\mkb.defines.txt'
p216
F1404462948.0
sS'c:\\marmalade\\7.3\\s3e\\makefile_builder\\plugins'
p217
F1406554690.2990348
sS'c:\\marmalade\\7.3\\s3e\\makefile_builder\\templates\\wp8_sln.pyc'
p218
F1404464240.0
sS'c:\\marmalade\\7.3\\s3e\\makefile_builder\\templates\\rvct_linker_script'
p219
F1404462948.0
sS'c:\\marmalade\\7.3\\s3e\\makefile_builder\\mkb_main.pyc'
p220
F1404464240.0
sS'c:\\marmalade\\7.3\\s3e\\makefile_builder\\templates\\win32_vcxproj_filters.pyc'
p221
F1404464240.0
sS'c:\\marmalade\\7.3\\s3e\\makefile_builder\\templates\\xcode4_DeployTool.xcscheme'
p222
F1404462948.0
sS'c:\\marmalade\\7.3\\s3e\\makefile_builder\\plugins\\s3e_ws81.pyc'
p223
F1404464240.0
sS'c:\\marmalade\\7.3\\s3e\\makefile_builder\\templates\\scons.pyc'
p224
F1404464240.0
sS'c:\\marmalade\\7.3\\s3e\\makefile_builder\\templates\\ws8_csproj.pyc'
p225
F1404464240.0
sS'c:\\marmalade\\7.3\\s3e\\makefile_builder\\templates'
p226
F1406553858.5063906
sS'c:\\marmalade\\7.3\\s3e\\makefile_builder\\plugins\\s3e_scons.pyc'
p227
F1404464240.0
sS'c:\\marmalade\\7.3\\s3e\\makefile_builder\\plugins\\XcodeEmitter.py'
p228
F1404462948.0
sS'c:\\marmalade\\7.3\\s3e\\makefile_builder\\templates\\win32_dsp.pyc'
p229
F1404464240.0
sS'c:\\marmalade\\7.3\\s3e\\makefile_builder\\plugins\\s3e_qmake.py'
p230
F1404462948.0
sS'c:\\marmalade\\7.3\\s3e\\makefile_builder\\mkb.py'
p231
F1404462948.0
sS'c:\\marmalade\\7.3\\s3e\\makefile_builder\\templates\\win32_sln.pyc'
p232
F1404464240.0
sS'c:\\marmalade\\7.3\\s3e\\makefile_builder\\plugins\\linux_scons.pyc'
p233
F1404464240.0
sS'c:\\marmalade\\7.3\\s3e\\makefile_builder\\templates\\ws81_ext_csproj.pyc'
p234
F1404464240.0
sS'c:\\marmalade\\7.3\\s3e\\makefile_builder\\templates\\win8_vcxproj.pyc'
p235
F1404464240.0
sS'c:\\marmalade\\7.3\\s3e\\makefile_builder\\templates\\win32_vcxproj.pyc'
p236
F1404464240.0
sS'c:\\marmalade\\7.3\\s3e\\makefile_builder\\templates\\vc7_suo.pyc'
p237
F1404464240.0
sS'c:\\marmalade\\7.3\\s3e\\makefile_builder\\templates\\make.py'
p238
F1404462948.0
sS'c:\\marmalade\\7.3\\s3e\\makefile_builder\\templates\\wp8_vcxproj.pyc'
p239
F1404464240.0
sS'c:\\marmalade\\7.3\\s3e\\makefile_builder\\plugins\\MakeEmitter.pyc'
p240
F1404464240.0
sS'c:\\marmalade\\7.3\\s3e\\makefile_builder\\plugins\\deploy.pyc'
p241
F1404464240.0
sS'c:\\marmalade\\7.3\\s3e\\makefile_builder\\plugins\\VisualStudioEmitter.pyc'
p242
F1404464240.0
sS'c:\\marmalade\\7.3\\s3e\\makefile_builder\\plugins\\ws81_ws81.pyc'
p243
F1404464240.0
sS'c:\\marmalade\\7.3\\s3e\\makefile_builder\\docs\\parse_options.pyc'
p244
F1404464240.0
sS'c:\\marmalade\\7.3\\s3e\\makefile_builder\\templates\\win32_dsw.pyc'
p245
F1404464240.0
sS'c:\\marmalade\\7.3\\s3e\\makefile_builder\\plugins\\s3e_make.pyc'
p246
F1404464240.0
sS'c:\\marmalade\\7.3\\s3e\\makefile_builder\\templates\\ws8_sln.pyc'
p247
F1404464240.0
sS'c:\\marmalade\\7.3\\s3e\\makefile_builder\\templates\\ws81_vcxproj.pyc'
p248
F1404464240.0
sS'c:\\marmalade\\7.3\\s3e\\makefile_builder\\templates\\win8_csproj_user.pyc'
p249
F1404464240.0
sS'c:\\marmalade\\7.3\\s3e\\makefile_builder\\templates\\ws81_ext_sln.pyc'
p250
F1404464240.0
sS'c:\\marmalade\\7.3\\s3e\\makefile_builder\\plugins\\XcodeEmitter.pyc'
p251
F1406554690.1959064
sS'c:\\marmalade\\7.3\\s3e\\makefile_builder\\templates\\mips_linker_script'
p252
F1404462948.0
sS'c:\\marmalade\\7.3\\s3e\\makefile_builder\\docs'
p253
F1406553858.5254142
sS'c:\\marmalade\\7.3\\s3e\\makefile_builder\\templates\\xcode4_arm.xcscheme'
p254
F1404462948.0
sS'c:\\marmalade\\7.3\\s3e\\makefile_builder\\templates\\ws81_csproj.pyc'
p255
F1404464240.0
sS'c:\\marmalade\\7.3\\s3e\\makefile_builder\\templates\\ws8_ext_sln.pyc'
p256
F1404464240.0
sS'c:\\marmalade\\7.3\\s3e\\makefile_builder\\plugins\\Emitter.pyc'
p257
F1404464240.0
sS'c:\\marmalade\\7.3\\s3e\\makefile_builder\\templates\\template.opt'
p258
F1404462948.0
sS'c:\\marmalade\\7.3\\s3e\\makefile_builder\\plugins\\vc6_utils.pyc'
p259
F1404464240.0
sS'c:\\marmalade\\7.3\\s3e\\makefile_builder\\templates\\linker_script'
p260
F1404462948.0
sS'c:\\marmalade\\7.3\\s3e\\makefile_builder\\templates\\xcode4.xcscheme'
p261
F1404462948.0
sS'c:\\marmalade\\7.3\\s3e\\makefile_builder\\plugins\\Win8Emitter.pyc'
p262
F1404464240.0
sS'c:\\marmalade\\7.3\\s3e\\makefile_builder\\templates\\Info.plist'
p263
F1404462948.0
sS'c:\\marmalade\\7.3\\s3e\\makefile_builder\\plugins\\s3e_xcode.py'
p264
F1404462948.0
sS'c:\\marmalade\\7.3\\s3e\\makefile_builder\\docs\\options.txt'
p265
F1404462948.0
sS'c:\\marmalade\\7.3\\s3e\\makefile_builder\\templates\\ws81_csproj_user.pyc'
p266
F1404464240.0
sS'c:\\marmalade\\7.3\\s3e\\makefile_builder\\templates\\qmake.py'
p267
F1404462948.0
sS'c:\\marmalade\\7.3\\s3e\\makefile_builder\\plugins\\win32_vc6.pyc'
p268
F1404464240.0
sS'c:\\marmalade\\7.3\\s3e\\makefile_builder\\plugins\\ws8_ws8.pyc'
p269
F1404464240.0
sS'c:\\marmalade\\7.3\\s3e\\makefile_builder\\plugins\\osx_xcode.pyc'
p270
F1404464240.0
sS'c:\\marmalade\\7.3\\s3e\\makefile_builder\\templates\\ws81_sln.pyc'
p271
F1404464240.0
sS'c:\\marmalade\\7.3\\s3e\\makefile_builder\\templates\\win32_vcproj.pyc'
p272
F1404464240.0
sS'c:\\marmalade\\7.3\\s3e\\makefile_builder\\plugins\\s3e_vc6.pyc'
p273
F1404464240.0
sS'c:\\marmalade\\7.3\\s3e\\makefile_builder\\mkb_option.pyc'
p274
F1404464240.0
sS'c:\\marmalade\\7.3\\s3e\\makefile_builder\\templates\\vc6_opt.pyc'
p275
F1404464240.0
sS'c:\\marmalade\\7.3\\s3e\\makefile_builder\\templates\\win8_ext_csproj.pyc'
p276
F1404464240.0
sS'c:\\marmalade\\7.3\\s3e\\makefile_builder\\plugins\\s3e_win8.pyc'
p277
F1404464240.0
sS'c:\\marmalade\\7.3\\s3e\\makefile_builder\\templates\\template.suo'
p278
F1404462948.0
sS'c:\\marmalade\\7.3\\s3e\\makefile_builder\\templates\\ws8_vcxproj.pyc'
p279
F1404464240.0
sS'c:\\marmalade\\7.3\\s3e\\makefile_builder\\templates\\vc10_user.pyc'
p280
F1404464240.0
sS'c:\\marmalade\\7.3\\s3e\\makefile_builder\\templates\\wp8_ext_csproj.pyc'
p281
F1404464240.0
sS'c:\\marmalade\\7.3\\s3e\\makefile_builder\\plugins\\java.pyc'
p282
F1404464240.0
sS'c:\\marmalade\\7.3\\s3e\\makefile_builder\\templates\\MainWindow.xib'
p283
F1404462948.0
sS'c:\\marmalade\\7.3\\s3e\\makefile_builder\\templates\\qmake_user.py'
p284
F1404462948.0
sS'c:\\marmalade\\7.3\\s3e\\makefile_builder\\plugins\\win8_utils.pyc'
p285
F1404464240.0
sS'c:\\marmalade\\7.3\\s3e\\makefile_builder\\templates\\xcode.py'
p286
F1404462948.0
sS'c:\\marmalade\\7.3\\s3e\\makefile_builder\\mkb_parser.pyc'
p287
F1404464240.0
sS'c:\\marmalade\\7.3\\s3e\\makefile_builder\\plugins\\xcode4_schememanagement.pyc'
p288
F1406554690.2019138
sS'c:\\marmalade\\7.3\\s3e\\makefile_builder\\plugins\\s3e_qmake.pyc'
p289
F1406554690.2679965
sS'c:\\marmalade\\7.3\\s3e\\makefile_builder\\templates\\ws8_ext_csproj.pyc'
p290
F1404464240.0
sS'c:\\marmalade\\7.3\\s3e\\makefile_builder\\plugins\\S3EEmitter.pyc'
p291
F1404464240.0
sS'c:\\marmalade\\7.3\\s3e\\makefile_builder\\plugins\\xcode4_schememanagement.py'
p292
F1404462948.0
sS'c:\\marmalade\\7.3\\s3e\\makefile_builder\\plugins\\s3e_ws8.pyc'
p293
F1404464240.0
sS'c:\\marmalade\\7.3\\s3e\\makefile_builder\\mkb_globals.pyc'
p294
F1404464240.0
sS'c:\\marmalade\\7.3\\s3e\\makefile_builder\\templates\\gdb_start.txt'
p295
F1404462948.0
sS'c:\\marmalade\\7.3\\s3e\\makefile_builder\\docs\\deployment_options.txt'
p296
F1404462946.0
sS'c:\\marmalade\\7.3\\s3e\\makefile_builder\\plugins\\vc7_utils.pyc'
p297
F1404464240.0
sS'c:\\marmalade\\7.3\\s3e\\makefile_builder\\tool_launcher.exe'
p298
F1404463306.0
sS'c:\\marmalade\\7.3\\s3e\\makefile_builder\\plugins\\iphone.pyc'
p299
F1404464240.0
sccopy_reg
_reconstructor
p300
(cmkb_main
MkbFile
p301
c__builtin__
object
p302
Ntp303
Rp304
(dp305
g5
(lp306
sS'target_name'
p307
S'BallGame'
p308
sS'current_file'
p309
g121
sS'package_path'
p310
(lp311
sS'post_build'
p312
(lp313
(lp314
S'c:/marmalade/7.3/s3e/tools'
p315
aS'C:\\Marmalade\\7.3\\s3e\\python\\python.exe .\\process_map.py "$(TargetPath)"'
p316
aa(S'c:\\marmalade\\7.3\\s3e\\bin'
p317
S'"s3e_plink" -l "$(TargetPath)" '
p318
g152
tp319
asS'librarys'
p320
(lp321
g300
(cmkb_main
Library
p322
g302
Ntp323
Rp324
(dp325
S'name'
p326
S'vc6_compat.lib'
p327
sS'expand_name'
p328
I00
sS'include_spec_rvct_objs'
p329
(lp330
sS'include_all_objs'
p331
I00
sS'share_arm'
p332
I00
sS'arch'
p333
S'x86'
p334
sS'nodebug'
p335
I00
sg36
Nsbag300
(g322
g302
Ntp336
Rp337
(dp338
g326
S'iwutil'
p339
sg328
I01
sg329
(lp340
sg331
Nsg332
Nsg333
Nsg335
I00
sg36
Nsbag300
(g322
g302
Ntp341
Rp342
(dp343
g326
S'jpeg'
p344
sg328
I01
sg329
g340
sg331
Nsg332
Nsg333
Nsg335
I00
sg36
Nsbag300
(g322
g302
Ntp345
Rp346
(dp347
g326
S'z'
p348
sg328
I01
sg329
g340
sg331
Nsg332
Nsg333
Nsg335
I00
sg36
Nsbag300
(g322
g302
Ntp349
Rp350
(dp351
g326
S'png'
p352
sg328
I01
sg329
g340
sg331
Nsg332
Nsg333
Nsg335
I00
sg36
Nsbag300
(g322
g302
Ntp353
Rp354
(dp355
g326
S'iw2d'
p356
sg328
I01
sg329
g340
sg331
Nsg332
Nsg333
Nsg335
I00
sg36
Nsbag300
(g322
g302
Ntp357
Rp358
(dp359
g326
S'ATI_Compress_MT_VC7.lib'
p360
sg328
I00
sg329
g340
sg331
Nsg332
Nsg333
S'x86'
p361
sg335
I00
sg36
Nsbag300
(g322
g302
Ntp362
Rp363
(dp364
g326
S'iwgx'
p365
sg328
I01
sg329
g340
sg331
Nsg332
Nsg333
Nsg335
I00
sg36
Nsbag300
(g322
g302
Ntp366
Rp367
(dp368
g326
S'iwgl'
p369
sg328
I01
sg329
g340
sg331
Nsg332
Nsg333
Nsg335
I00
sg36
Nsbag300
(g322
g302
Ntp370
Rp371
(dp372
g326
S'iwgeom'
p373
sg328
I01
sg329
g340
sg331
Nsg332
Nsg333
Nsg335
I00
sg36
Nsbag300
(g322
g302
Ntp374
Rp375
(dp376
g326
S'iwresmanager'
p377
sg328
I01
sg329
g340
sg331
Nsg332
Nsg333
Nsg335
I00
sg36
Nsbag300
(g322
g302
Ntp378
Rp379
(dp380
g326
S'iwgxfont'
p381
sg328
I01
sg329
g340
sg331
Nsg332
Nsg333
Nsg335
I00
sg36
Nsbag300
(g322
g302
Ntp382
Rp383
(dp384
g326
S'tiniconv'
p385
sg328
I01
sg329
g340
sg331
Nsg332
Nsg333
Nsg335
I00
sg36
Nsbag300
(g322
g302
Ntp386
Rp387
(dp388
g326
S's3e_cpp'
p389
sg328
I01
sg329
g330
sg331
I00
sg332
I00
sg333
Nsg335
I00
sg36
Nsbag300
(g322
g302
Ntp390
Rp391
(dp392
g326
S's3e'
p393
sg328
I01
sg329
(lp394
S'iwcrt.o'
p395
asg331
I00
sg332
I00
sg333
Nsg335
I00
sg36
Nsbag300
(g322
g302
Ntp396
Rp397
(dp398
g326
g49
sg328
I01
sg329
g330
sg331
I00
sg332
I00
sg333
S'x86'
p399
sg335
I01
sg36
Nsbag300
(g322
g302
Ntp400
Rp401
(dp402
g326
g49
sg328
I01
sg329
g330
sg331
I00
sg332
I00
sg333
S'!x86'
p403
sg335
I01
sg36
Nsbag300
(g322
g302
Ntp404
Rp405
(dp406
g326
S'stdc++'
p407
sg328
I00
sg329
g330
sg331
I00
sg332
I00
sg333
S'mips'
p408
sg335
I00
sg36
Nsbag300
(g322
g302
Ntp409
Rp410
(dp411
g326
S'c'
p412
sg328
I00
sg329
g330
sg331
I00
sg332
I00
sg333
S'mips'
p413
sg335
I00
sg36
Nsbag300
(g322
g302
Ntp414
Rp415
(dp416
g326
S'm'
p417
sg328
I00
sg329
g330
sg331
I00
sg332
I00
sg333
S'mips'
p418
sg335
I00
sg36
Nsbag300
(g322
g302
Ntp419
Rp420
(dp421
g326
S'gcc'
p422
sg328
I00
sg329
g330
sg331
I00
sg332
I00
sg333
S'mips'
p423
sg335
I00
sg36
Nsbag300
(g322
g302
Ntp424
Rp425
(dp426
g326
S'stdc++'
p427
sg328
I00
sg329
g330
sg331
I00
sg332
I00
sg333
S'gcc_x86_android'
p428
sg335
I00
sg36
Nsbag300
(g322
g302
Ntp429
Rp430
(dp431
g326
g412
sg328
I00
sg329
g330
sg331
I00
sg332
I00
sg333
S'gcc_x86_android'
p432
sg335
I00
sg36
Nsbag300
(g322
g302
Ntp433
Rp434
(dp435
g326
g417
sg328
I00
sg329
g330
sg331
I00
sg332
I00
sg333
S'gcc_x86_android'
p436
sg335
I00
sg36
Nsbag300
(g322
g302
Ntp437
Rp438
(dp439
g326
g422
sg328
I00
sg329
g330
sg331
I00
sg332
I00
sg333
S'gcc_x86_android'
p440
sg335
I00
sg36
NsbasS'library_paths'
p441
(lp442
g300
(cmkb_main
LibraryPath
p443
g302
Ntp444
Rp445
(dp446
S'expand_path'
p447
I01
sg326
S'c:/marmalade/7.3/modules/iwutil'
p448
sbag300
(g443
g302
Ntp449
Rp450
(dp451
g447
I01
sg326
S'c:/marmalade/7.3/modules/third_party/libjpeg'
p452
sbag300
(g443
g302
Ntp453
Rp454
(dp455
g447
I01
sg326
S'c:/marmalade/7.3/modules/third_party/zlib'
p456
sbag300
(g443
g302
Ntp457
Rp458
(dp459
g447
I01
sg326
S'c:/marmalade/7.3/modules/third_party/libpng'
p460
sbag300
(g443
g302
Ntp461
Rp462
(dp463
g447
I01
sg326
S'c:/marmalade/7.3/modules/iw2d'
p464
sbag300
(g443
g302
Ntp465
Rp466
(dp467
g447
I00
sg326
S'c:/marmalade/7.3/modules/iwgx/atitools'
p468
sbag300
(g443
g302
Ntp469
Rp470
(dp471
g447
I01
sg326
S'c:/marmalade/7.3/modules/iwgx'
p472
sbag300
(g443
g302
Ntp473
Rp474
(dp475
g447
I01
sg326
S'c:/marmalade/7.3/modules/iwgl'
p476
sbag300
(g443
g302
Ntp477
Rp478
(dp479
g447
I01
sg326
S'c:/marmalade/7.3/modules/iwgeom'
p480
sbag300
(g443
g302
Ntp481
Rp482
(dp483
g447
I01
sg326
S'c:/marmalade/7.3/modules/iwresmanager'
p484
sbag300
(g443
g302
Ntp485
Rp486
(dp487
g447
I01
sg326
S'c:/marmalade/7.3/modules/iwgxfont'
p488
sbag300
(g443
g302
Ntp489
Rp490
(dp491
g447
I01
sg326
S'c:/marmalade/7.3/modules/third_party/tiniconv'
p492
sbag300
(g443
g302
Ntp493
Rp494
(dp495
g447
I01
sg326
S'c:/marmalade/7.3/s3e'
p496
sbasS'macros'
p497
(dp498
S'IW_USE_CALLSTACK'
p499
NsS'IW_MKF_IWGEOM'
p500
NsS'I3D_PLATFORM_S3E'
p501
NsS'IW_MKF_IW2DSCENEGRAPHCORE'
p502
NsS'IW_MKF_LIBJPEG'
p503
NsS'I3D_OS_S3E'
p504
NsS'IW_MKF_PVRTEXTOOL'
p505
NsS'IW_MKF_TINICONV'
p506
NsS'IW_APP_VERSION'
p507
S'"1.0"'
p508
sS'__S3E__'
p509
NsS'IW_MKF_IWRESMANAGER'
p510
NsS'IW_MKF_IWUTIL'
p511
NsS'IW_PLATFORM_S3E'
p512
NsS'IW_ASSERTION_CHANNEL_2D'
p513
S'1'
p514
sS'IW_APP_NAME'
p515
S'"BallGame"'
p516
sS'IW_MKF_IWGXFONT'
p517
NsS'IW_MKF_IWTWEEN'
p518
NsS'IW_MKF_ZLIB'
p519
NsS'IW_MKF_IWGX'
p520
NsS'IW_MKF_IW2DSCENEGRAPH'
p521
NsS'IW_USE_ASSERTIONS'
p522
NsS'_CRT_SECURE_NO_DEPRECATE'
p523
NsS'IW_MKF_IWGL'
p524
NsS'IW_MKF_LIBPNG'
p525
NsS'IW_TRACE_CHANNEL_IW_2DSCENEGRAPH'
p526
g514
sS'IW_DEBUG'
p527
NsS'IW_USE_TRACING'
p528
NsS'IW_ASSERTION_CHANNEL_IW_2DSCENEGRAPH'
p529
g514
sS'IW_TRACE_CHANNEL_PVRTEXTOOL'
p530
g514
sS'IW_SDK'
p531
NsS'S3E_INCLUDE_LEGACY'
p532
NsS'IW_TRACE_CHANNEL_PVRTEXTOOL_VERBOSE'
p533
S'2'
p534
sS'IW_MKF_IW2D'
p535
NsS'IW_ASSERTION_CHANNEL_PVRTEXTOOL'
p536
g514
ssS'done_warnings'
p537
(dp538
sS'subprojects'
p539
(dp540
g183
S'iwgxfont'
p541
sg175
S'iw2dscenegraphcore'
p542
sg185
S'iwtween'
p543
sg173
S'libpng'
p544
sg172
S'libjpeg'
p545
sg182
S'PVRTexTool'
p546
sg180
S'iwgeom'
p547
sg178
S'iwgx'
p548
sg177
S'iw2d'
p549
sg184
S'tiniconv'
p550
sg179
S'iwgl'
p551
sg171
S'iwutil'
p552
sg181
S'iwresmanager'
p553
sg174
S'zlib'
p554
sg176
S'iw2dscenegraph'
p555
ssS'deployments'
p556
(dp557
S'Default'
p558
g300
(cdeployment
Deployment
p559
g302
Ntp560
Rp561
(dp562
S'got_version'
p563
I0
sS'assets'
p564
g558
sS'mkb'
p565
g304
sS'target'
p566
Nsg333
(lp567
sS'options'
p568
(dp569
S'iphone-link-lib'
p570
(lp571
sS'game-icf'
p572
NsS'android-tm'
p573
NsS'winmobile-icon32'
p574
NsS'ws8-logo-image150x150'
p575
NsS'ws81-product-version'
p576
NsS'osx-ext-dll'
p577
(lp578
S'c:/marmalade/7.3/extensions/pvrtextool/lib/osx/libPVRTexTool.dylib'
p579
asS'iphone-provisioning-profile'
p580
NsS'ws8-splash-screen-image620x300'
p581
NsS'ws8-ext-capabilities'
p582
(lp583
sS'android-icon-hdpi'
p584
NsS'brew-icon-large'
p585
NsS'iphone-splash-full-orient'
p586
NsS'wp8-tile-fliptemplate-supports-large'
p587
NsS'iphone-show-status-bar'
p588
NsS'roku-requires-mkv'
p589
NsS'long-caption'
p590
NsS'android-pkgname'
p591
NsS'blackberry-permissions-read-device-identifying-information'
p592
NsS'ws81-certificate-end-date'
p593
NsS'psp-dlgcontentid'
p594
NsS'target-folder'
p595
NsS'tizen-dist1-CA-path'
p596
NsS'symbian-icon2-format'
p597
NsS'iphone-region'
p598
NsS'uiq3-icon3-mask'
p599
NsS'brew-encoding'
p600
NsS'android-x86'
p601
NsS'nds-initialcode'
p602
NsS'iphone-persistent-wifi'
p603
NsS'psp-snd0'
p604
NsS'osx-signing-identity-inst'
p605
NsS'winmobile-install-folder'
p606
NsS'android-external-res'
p607
(lp608
sS'ws8-product-version'
p609
NsS'brew-priviledges'
p610
NsS'iphone-icon-ipad-search'
p611
NsS'iphone-icon-ipad'
p612
NsS'roku-icon-focus-hd'
p613
NsS'roku-hidden'
p614
NsS'psp-titlename'
p615
NsS'symbian-icon1-mask'
p616
NsS'psp-parentallevel'
p617
NsS'splashscreen-use-all'
p618
NsS'wp8-author'
p619
NsS'symbian-disable-ecompxl'
p620
NsS'splashscreen-auto-onblack'
p621
NsS'ws81-ext-capabilities'
p622
(lp623
sS'iphone-development-key'
p624
NsS'winmobile-icon48'
p625
NsS'android-unsigned'
p626
NsS'osx-appstore-category'
p627
NsS'version-revision'
p628
NsS'roku-icon-focus-sd'
p629
NsS'android-keystore'
p630
NsS'winmobile-png90'
p631
NsS'iphone-icon-ipad-high-res'
p632
NsS'iphone-disable-ipad'
p633
NsS'wp8-product-id'
p634
NsS'ws81-splash-screen-background'
p635
NsS'wp8-ext-capabilities'
p636
(lp637
sS'iphone-ipad-only'
p638
NsS'symbian-icon1-mask-black'
p639
NsS'iphone-bundle-localisations'
p640
NsS'winmobile-png60'
p641
NsS'blackberry-permissions-access-shared'
p642
NsS'blackberry-author'
p643
NsS'android-icon-xxxhdpi'
p644
NsS'olddeploytoolstyle'
p645
NsS'android_icon_gallery'
p646
NsS'winmobile-cab-compress'
p647
NsS'ws81-ext-managed-dll'
p648
(lp649
sS'win32-icon'
p650
NsS'symbian-key'
p651
NsS'app-icf'
p652
NsS'blackberry-storepass'
p653
NsS'wp8-tile-fliptemplate-back-title'
p654
NsS'brew-compress-loader'
p655
NsS'win32-pref-windowposy'
p656
NsS'win32-pref-windowposx'
p657
NsS'roku-requires-audiometadata'
p658
NsS'wp8-exclude-low-mem'
p659
NsS'wp8-tile-fliptemplate-title'
p660
NsS'iphone-icon-ipad-search-high-res'
p661
NsS'iphone-link-libdir'
p662
(lp663
sS'blackberry-permissions-read-geolocation'
p664
NsS'ws81-ext-device-capabilities'
p665
(lp666
sS'tizen-signed'
p667
NsS'android-extra-application-manifest'
p668
(lp669
sS'ws8-ext-native-dll'
p670
(lp671
sS'symbian-icon2-mask'
p672
NsS'iphone-backgroundmode-audio'
p673
NsS'webos-memory'
p674
NsS'android-keypass'
p675
NsS'name'
p676
NsS'uiq3-icon2-format'
p677
NsS'roku-splash-screen-sd'
p678
NsS'auto-derbh'
p679
NsS'roku-icon-side-sd'
p680
NsS'symbian-maxheapsize'
p681
NsS'nds-publicsavedatasize'
p682
NsS'splashscreen'
p683
NsS'brew-mif'
p684
NsS'iphone-icon-settings-high-res'
p685
NsS'android-manifest'
p686
NsS'ws81-splash-screen-image620x300'
p687
NsS's3e-compression'
p688
NsS'tizen-author-password'
p689
NsS'wp8-tile-fliptemplate-back-content'
p690
NsS'symbian-icon1'
p691
NsS'symbian-icon2'
p692
NsS'android-extra-styles-file'
p693
NsS'nds-bannertitle-jp'
p694
NsS'osx-sign-for-store'
p695
NsS'symbian7-uid'
p696
NsS'wp8-tile-fliptemplate-large-back-content'
p697
NsS'nds-bannertitle-cn'
p698
NsS'iphone-distribution-key'
p699
NsS'android-icon-gallery'
p700
NsS'blackberry-keystore'
p701
NsS'iphone-nosign'
p702
NsS'caption'
p703
NsS'android-extra-manifest'
p704
(lp705
sS'android-icon-xxhdpi'
p706
NsS'version-minor'
p707
NsS'iphone-link-libdirs'
p708
(lp709
sS'iphone-icon-large'
p710
NsS'symbian-keypwd'
p711
NsS'symbian8-uid'
p712
NsS'symbian-cert-key'
p713
NsS'winmobile-ampd-part-number'
p714
NsS'arch'
p715
NsS'nds-romheadertemplate'
p716
NsS'webos-icon'
p717
NsS'psp-dlgprotectdocument'
p718
NsS'ws8-splash-screen-background'
p719
NsS'android-icon-mdpi'
p720
NsS'nds-icon'
p721
NsS'ws8-custom-manifest-fill'
p722
NsS'iphone-development-cert'
p723
NsS'blackberry-phone-icon'
p724
NsS'iphone-enable-4inch-retina'
p725
NsS'ws8-custom-manifest'
p726
NsS'version-major'
p727
NsS'wp8-genre-isgame'
p728
NsS'uiq3-uid'
p729
NsS'iphone-splash-retina-generate'
p730
NsS'tizen-hw-acceleration'
p731
NsS'iphone_bundle_localisations'
p732
NsS'tizen-dist1-key'
p733
NsS'wp8-custom-manifest'
p734
NsS'nds-bannertitle-ge'
p735
NsS'iphone-sign-for-distribution'
p736
NsS'wp8-tile-fliptemplate-medium-back-image'
p737
NsS'wp8-publisher-id'
p738
NsS'icon'
p739
NsS'wp8-exclude-wxga'
p740
NsS'uiq3-icon2-mask'
p741
NsS'iphone-splashscreen-portrait'
p742
NsS'iphone-icon-high-res'
p743
NsS'ws81-distribution-pfx-password'
p744
NsS'playbook-author'
p745
NsS'android-icon-xhdpi'
p746
NsS'linux-ext-lib'
p747
(lp748
sS'blackberry-permissions-access-internet'
p749
NsS'wp8-exclude-720p'
p750
NsS'lgtv-use-drm'
p751
NsS'symbian-platsecflags'
p752
NsS'ws8-description'
p753
NsS'blackberry-playbook-icon'
p754
NsS'copyright'
p755
NsS'win32-gles-directory'
p756
NsS'version'
p757
NsS'ws81-logo-image150x150'
p758
NsS'tizen-project-url'
p759
NsS'symbian-icon-svg'
p760
NsS'android-aliasname'
p761
NsS'psp-dlgmanual'
p762
NsS'brew-uid'
p763
NsS'symbian-locationsupport'
p764
NsS'ws8-ext-managed-dll'
p765
(lp766
sS'ws81-ext-sdk-ref-file'
p767
(lp768
sS'nds-bannertitle-it'
p769
NsS'ws8-ext-sdk-manifest-part'
p770
(lp771
sS'uiq3-icon1-mask'
p772
NsS'winmobile-icon16'
p773
NsS'ws8-product-name'
p774
NsS'blackberry-cskpass'
p775
NsS'winmobile-start-menu-folder'
p776
NsS'brew-clsid'
p777
NsS'roku-requires-bluetooth'
p778
NsS'ws8-ext-device-capabilities'
p779
(lp780
sS'blackberry-permissions-use-camera'
p781
NsS'iphone-prerendered-icon'
p782
NsS'iphone-appid'
p783
NsS'ws8-identity-name'
p784
NsS'tizen-dist2-CA-path'
p785
NsS'winmobile-icon64'
p786
NsS'blackberry-permissions-post-notification'
p787
NsS'winmobile-setup-dll'
p788
NsS'android-external-jars'
p789
(lp790
sS'symbian9-uid'
p791
NsS'iphone-icon-ipad-ios7'
p792
NsS'winmobile-trace-file'
p793
NsS'roku-splash-color'
p794
NsS'psp-appversion'
p795
NsS'ws8-publisher-id'
p796
NsS'android-supports-gl-texture'
p797
(lp798
sS'winmobile-png45'
p799
NsS'android-storepass'
p800
NsS'osx-signing-identity-app'
p801
NsS'android-custom-activity'
p802
NsS'psp-discversion'
p803
NsS'psp-copyright'
p804
NsS'embed-icf'
p805
NsS'tizen-manifest'
p806
NsS'osx-icon'
p807
NsS'webos-appinfo'
p808
NsS'psp-dlghealthwarning'
p809
NsS'webos-appid'
p810
NsS'roku-icon-side-hd'
p811
NsS'iphone-icon-ipad-search-high-res-ios7'
p812
NsS'ws81-ext-sdk-manifest-part'
p813
(lp814
sS'loader_name_prefix'
p815
NsS'nds-titlename'
p816
NsS'ws81-logo-image50x50'
p817
NsS'osx-entitlements-plist'
p818
NsS'psp-dlgicon0'
p819
NsS'winmobile-nouninstall'
p820
NsS'psp-discid'
p821
NsS'tizen-dist2-password'
p822
NsS'ws8-ext-sdk-ref'
p823
(lp824
sS'iphone-extra-string'
p825
(lp826
sS'version-string'
p827
NsS'iphone-icon-high-res-ios7'
p828
NsS'blackberry-permissions-record-audio'
p829
NsS'ws8-certificate-end-date'
p830
NsS'tizen-so'
p831
(lp832
sS'wp8-tile-fliptemplate-small-image'
p833
NsS'pkguid-as-uid'
p834
NsS'iphone-signing-identity'
p835
NsS'roku-persist-quota'
p836
NsS'nds-bannertitle-fr'
p837
NsS'ws8-distribution-pfx'
p838
NsS'ws8-publisher-display-name'
p839
NsS'brew-icon-small'
p840
NsS'psp-dlgpic2'
p841
NsS'psp-dlgpic0'
p842
NsS'psp-pic0'
p843
NsS'psp-pic1'
p844
NsS'psp-icon0'
p845
NsS'psp-icon1'
p846
NsS'ws81-identity-name'
p847
NsS'winmobile-icon'
p848
NsS'iphone-no-splash'
p849
NsS'iphone-splash'
p850
NsS'iphone-app-fonts'
p851
NsS'wp8-ext-native-dll'
p852
(lp853
sS'ws81-distribution-cer'
p854
NsS'uiq3-icon2'
p855
NsS'uiq3-icon3'
p856
NsS'uiq3-icon1'
p857
NsS'uiq3-icon1-format'
p858
NsS'ws8-logo-image50x50'
p859
NsS'symbian-icon2-mask-black'
p860
NsS'symbian-run-on-install'
p861
NsS'ws81-publisher-display-name'
p862
NsS'ws81-custom-manifest-fill'
p863
NsS'symbian-soundrecordsupport'
p864
NsS'nds-bannertitle-sp'
p865
NsS'psp-producer'
p866
NsS'iphone-apple-wwdr-cert'
p867
NsS'android-icon-nonstandard'
p868
NsS'win32-pref-processtitle'
p869
NsS'nds-bannertitle-hn'
p870
NsS'tizen-dist2-key'
p871
NsS'brew-depends'
p872
NsS'ws81-custom-manifest'
p873
NsS'iphone-icon-ipad-search-ios7'
p874
NsS'brew-icon-medium'
p875
NsS'iphone-bundle-url-name'
p876
NsS'wp8-tile-fliptemplate-large-front-image'
p877
NsS'tizen-dist2-CA-root-path'
p878
NsS'ws81-description'
p879
NsS'uiq3-icon3-format'
p880
NsS'ws81-logo-image30x30'
p881
NsS'iphone-signing-host'
p882
NsS'tizen-icon'
p883
NsS'osx-info-plist'
p884
NsS'symbian-icon1-format'
p885
NsS'ws81-distribution-pfx'
p886
NsS'blackberry-authorid'
p887
NsS'ws81-publisher-id'
p888
NsS'ws81-ext-sdk-ref'
p889
(lp890
sS'wp8-description'
p891
NsS'iphone-link-opts'
p892
(lp893
sS'roku-splash-min-time'
p894
NsS'wp8-tile-fliptemplate-medium-front-image'
p895
NsS'provider'
p896
NsS'playbook-keystore'
p897
NsS'tizen-appid'
p898
NsS'tizen-author-key'
p899
NsS'symbian-osexecsupport'
p900
NsS'android-install-location'
p901
NsS'nds-privatesavedatasize'
p902
NsS'playbook-storepass'
p903
NsS'android-icon-ldpi'
p904
NsS'manufacturer'
p905
NsS'itunes-artwork'
p906
NsS'iphone-extra-sections'
p907
NsS'ws81-product-name'
p908
NsS'ws81-ext-native-dll'
p909
(lp910
sS'iphone-info-plist'
p911
NsS'ws8-distribution-pfx-password'
p912
NsS'ws8-logo-image30x30'
p913
NsS'wp8-ext-managed-dll'
p914
(lp915
sS'iphone-splashscreen-landscape'
p916
NsS'nds-makercode'
p917
NsS'priv-sign-key'
p918
NsS'networking'
p919
NsS'android-icon'
p920
NsS'iphone-icon-settings'
p921
NsS'iphone-distribution-cert'
p922
NsS'android_extra_strings'
p923
NsS'nds-bannertitle-en'
p924
NsS'playbook-cskpass'
p925
NsS'android-so'
p926
(lp927
sS'wp8-higher-mem'
p928
NsS'roku-splash-screen-hd'
p929
NsS'iphone-bundle-url-schemes'
p930
NsS'roku-screensaver-private'
p931
NsS'osx-extra-res'
p932
(lp933
sS'playbook-icon'
p934
NsS'uid'
p935
NsS'playbook-authorid'
p936
NsS'win32-pref-windowtitle'
p937
NsS'tizen-dist1-password'
p938
NsS'roku-screensaver-title'
p939
NsS'osx-minimum-osx-version'
p940
NsS'symbian-cert'
p941
NsS'iphone-icon'
p942
NsS'win32-ext-dll'
p943
(lp944
S'c:/marmalade/7.3/extensions/pvrtextool/lib/win32/PVRTexTool.dll'
p945
asS'ws8-distribution-cer'
p946
NsS'playbook-access-shared'
p947
NsS'iphone-icon-ipad-high-res-ios7'
p948
NsS'iphone-link-libs'
p949
(lp950
sS'wp8-exclude-wvga'
p951
NsS'assets'
p952
NsS'wp8-tile-fliptemplate-large-back-image'
p953
NsS'wp8-custom-manifest-fill'
p954
NsS'pub-sign-key'
p955
NsS'android-extra-strings'
p956
NsS'tizen-author-CA-path'
p957
Nssg326
g558
sbssS'platform'
p958
S'S3E'
p959
sg64
S'1.0'
p960
sS'arcade_platform'
p961
g4
sS'extensions'
p962
(dp963
sS'source_groups_tree'
p964
(dp965
S'build_ballgame_vc12x'
p966
(dp967
S'd:/src/marmalade/BallGame/build_ballgame_vc12x/Ball.cpp'
p968
(lp969
I1
a(dp970
asS'd:/src/marmalade/BallGame/build_ballgame_vc12x/Ball.h'
p971
(lp972
I1
ag970
assS'(libjpeg)'
p973
(dp974
S'h'
p975
(dp976
S'c:/marmalade/7.3/modules/third_party/libjpeg/h/jpeglib.h'
p977
(lp978
I1
a(dp979
asS'c:/marmalade/7.3/modules/third_party/libjpeg/h/jmemsys.h'
p980
(lp981
I1
ag979
asS'c:/marmalade/7.3/modules/third_party/libjpeg/h/jerror.h'
p982
(lp983
I1
ag979
asS'c:/marmalade/7.3/modules/third_party/libjpeg/h/cdjpeg.h'
p984
(lp985
I1
ag979
asS'c:/marmalade/7.3/modules/third_party/libjpeg/h/transupp.h'
p986
(lp987
I1
ag979
asS'c:/marmalade/7.3/modules/third_party/libjpeg/h/jconfig.h'
p988
(lp989
I1
ag979
asS'c:/marmalade/7.3/modules/third_party/libjpeg/h/jdhuff.h'
p990
(lp991
I1
ag979
asS'c:/marmalade/7.3/modules/third_party/libjpeg/h/jdct.h'
p992
(lp993
I1
ag979
asS'c:/marmalade/7.3/modules/third_party/libjpeg/h/cderror.h'
p994
(lp995
I1
ag979
asS'c:/marmalade/7.3/modules/third_party/libjpeg/h/jmorecfg.h'
p996
(lp997
I1
ag979
asS'c:/marmalade/7.3/modules/third_party/libjpeg/h/jinclude.h'
p998
(lp999
I1
ag979
asS'c:/marmalade/7.3/modules/third_party/libjpeg/h/jchuff.h'
p1000
(lp1001
I1
ag979
asS'c:/marmalade/7.3/modules/third_party/libjpeg/h/jpegint.h'
p1002
(lp1003
I1
ag979
asS'c:/marmalade/7.3/modules/third_party/libjpeg/h/jversion.h'
p1004
(lp1005
I1
ag979
assS'c:/marmalade/7.3/modules/third_party/libjpeg/libjpeg.mkf'
p1006
(lp1007
I1
a(dp1008
assS'(tiniconv)'
p1009
(dp1010
S'c:/marmalade/7.3/modules/third_party/tiniconv/tiniconv.mkf'
p1011
(lp1012
I1
a(dp1013
asS'c:/marmalade/7.3/modules/third_party/tiniconv/source/tiniconv_int.h'
p1014
(lp1015
I1
a(dp1016
asS'c:/marmalade/7.3/modules/third_party/tiniconv/source/tiniconv.h'
p1017
(lp1018
I1
ag1016
assS'(libpng)'
p1019
(dp1020
g975
(dp1021
S'c:/marmalade/7.3/modules/third_party/libpng/h/pngconf.h'
p1022
(lp1023
I1
a(dp1024
asS'c:/marmalade/7.3/modules/third_party/libpng/h/png.h'
p1025
(lp1026
I1
ag1024
assS'c:/marmalade/7.3/modules/third_party/libpng/libpng.mkf'
p1027
(lp1028
I1
a(dp1029
assS'Extensions'
p1030
(dp1031
S'PVRTexTool'
p1032
(dp1033
S'c:/marmalade/7.3/extensions/pvrtextool/h/PVRTexTool.h'
p1034
(lp1035
I1
a(dp1036
asS'interface'
p1037
(dp1038
S'c:/marmalade/7.3/extensions/pvrtextool/interface/PVRTexTool_interface.cpp'
p1039
(lp1040
I1
ag1036
asS'c:/marmalade/7.3/extensions/pvrtextool/interface/PVRTexTool.defines.txt'
p1041
(lp1042
I1
ag1036
assS'c:/marmalade/7.3/extensions/pvrtextool/pvrtextool.mkf'
p1043
(lp1044
I1
a(dp1045
asssS'd:/src/marmalade/BallGame/BallGame.cpp'
p1046
(lp1047
I1
ag970
asS"'Marmalade Studio'"
p1048
(dp1049
S'iw2dscenegraph'
p1050
(dp1051
S'c:/marmalade/7.3/modules/iw2dscenegraph/iw2dscenegraph.mkf'
p1052
(lp1053
I1
a(dp1054
asS'c:/marmalade/7.3/modules/iw2dscenegraph/docs/iw2dscenegraph.defines.txt'
p1055
(lp1056
I1
a(dp1057
asS'c:/marmalade/7.3/modules/iw2dscenegraph/source/Iw2DSceneGraph.cpp'
p1058
(lp1059
I1
ag1057
asS'c:/marmalade/7.3/modules/iw2dscenegraph/h/Iw2DSceneGraph.h'
p1060
(lp1061
I1
ag1057
assS'iwgl'
p1062
(dp1063
S'c:/marmalade/7.3/modules/iwgl/h/IwGL.h'
p1064
(lp1065
I1
a(dp1066
asS'c:/marmalade/7.3/modules/iwgl/iwgl.mkf'
p1067
(lp1068
I1
a(dp1069
asS'c:/marmalade/7.3/modules/iwgl/h/IwGLExt.h'
p1070
(lp1071
I1
ag1066
asS'c:/marmalade/7.3/modules/iwgl/docs/iwgl.config.txt'
p1072
(lp1073
I1
ag1066
assS'iw2d'
p1074
(dp1075
S'c:/marmalade/7.3/modules/iw2d/iw2d.mkf'
p1076
(lp1077
I1
a(dp1078
asS'c:/marmalade/7.3/modules/iw2d/h/Iw2D.h'
p1079
(lp1080
I1
a(dp1081
asS'c:/marmalade/7.3/modules/iw2d/docs/iw2d_public.defines.txt'
p1082
(lp1083
I1
ag1081
asS'c:/marmalade/7.3/modules/iw2d/docs/iw2d.config.txt'
p1084
(lp1085
I1
ag1081
assS'iwgxfont'
p1086
(dp1087
S'c:/marmalade/7.3/modules/iwgxfont/h/IwGxFont.h'
p1088
(lp1089
I1
a(dp1090
asS'c:/marmalade/7.3/modules/iwgxfont/h/IwGxFontPreparedData.h'
p1091
(lp1092
I1
ag1090
asS'c:/marmalade/7.3/modules/iwgxfont/iwgxfont.mkf'
p1093
(lp1094
I1
a(dp1095
asS'c:/marmalade/7.3/modules/iwgxfont/docs/iwgxfont.config.txt'
p1096
(lp1097
I1
ag1090
asS'c:/marmalade/7.3/modules/iwgxfont/docs/iwgxfont_public.defines.txt'
p1098
(lp1099
I1
ag1090
asS'c:/marmalade/7.3/modules/iwgxfont/h/IwGxFontState.h'
p1100
(lp1101
I1
ag1090
asS'c:/marmalade/7.3/modules/iwgxfont/h/IwGxFontContainer.h'
p1102
(lp1103
I1
ag1090
asS'c:/marmalade/7.3/modules/iwgxfont/h/IwGxFontTypes.h'
p1104
(lp1105
I1
ag1090
asS'c:/marmalade/7.3/modules/iwgxfont/h/IwGxFontGlyph.h'
p1106
(lp1107
I1
ag1090
assS'iwgeom'
p1108
(dp1109
S'c:/marmalade/7.3/modules/iwgeom/h/IwGeomFVec4.h'
p1110
(lp1111
I1
a(dp1112
asS'c:/marmalade/7.3/modules/iwgeom/h/IwGeomSQuat.h'
p1113
(lp1114
I1
ag1112
asS'c:/marmalade/7.3/modules/iwgeom/h/IwGeomFMat.h'
p1115
(lp1116
I1
ag1112
asS'c:/marmalade/7.3/modules/iwgeom/h/IwGeomMenu.h'
p1117
(lp1118
I1
ag1112
asS'c:/marmalade/7.3/modules/iwgeom/h/IwGeomMat2D.h'
p1119
(lp1120
I1
ag1112
asS'c:/marmalade/7.3/modules/iwgeom/h/IwGeomVec4.h'
p1121
(lp1122
I1
ag1112
asS'c:/marmalade/7.3/modules/iwgeom/h/IwGeomFSphere.h'
p1123
(lp1124
I1
ag1112
asS'c:/marmalade/7.3/modules/iwgeom/h/IwGeomFVec3.h'
p1125
(lp1126
I1
ag1112
asS'c:/marmalade/7.3/modules/iwgeom/h/IwGeomVec3.h'
p1127
(lp1128
I1
ag1112
asS'c:/marmalade/7.3/modules/iwgeom/h/IwGeomPlane.h'
p1129
(lp1130
I1
ag1112
asS'c:/marmalade/7.3/modules/iwgeom/h/IwGeomCore.h'
p1131
(lp1132
I1
ag1112
asS'c:/marmalade/7.3/modules/iwgeom/h/IwGeomFVec2.h'
p1133
(lp1134
I1
ag1112
asS'c:/marmalade/7.3/modules/iwgeom/h/IwGeomSphere.h'
p1135
(lp1136
I1
ag1112
asS'c:/marmalade/7.3/modules/iwgeom/h/IwGeomLegacy.h'
p1137
(lp1138
I1
ag1112
asS'c:/marmalade/7.3/modules/iwgeom/h/IwGeomVec2.h'
p1139
(lp1140
I1
ag1112
asS'c:/marmalade/7.3/modules/iwgeom/h/IwGeomMat2D.h.tpl'
p1141
(lp1142
I1
ag1112
asS'c:/marmalade/7.3/modules/iwgeom/h/IwGeomFMat2D.h'
p1143
(lp1144
I1
ag1112
asS'c:/marmalade/7.3/modules/iwgeom/h/IwGeomVec.h'
p1145
(lp1146
I1
ag1112
asS'c:/marmalade/7.3/modules/iwgeom/h/IwGeomFBBox.h'
p1147
(lp1148
I1
ag1112
asS'c:/marmalade/7.3/modules/iwgeom/h/IwGeomMat.h.tpl'
p1149
(lp1150
I1
ag1112
asS'c:/marmalade/7.3/modules/iwgeom/docs/iwgeom.config.txt'
p1151
(lp1152
I1
ag1112
asS'c:/marmalade/7.3/modules/iwgeom/iwgeom.mkf'
p1153
(lp1154
I1
a(dp1155
asS'c:/marmalade/7.3/modules/iwgeom/h/IwGeomFQuat.h'
p1156
(lp1157
I1
ag1112
asS'c:/marmalade/7.3/modules/iwgeom/h/IwGeom.h'
p1158
(lp1159
I1
ag1112
asS'c:/marmalade/7.3/modules/iwgeom/h/IwGeomSVec3.h'
p1160
(lp1161
I1
ag1112
asS'c:/marmalade/7.3/modules/iwgeom/h/IwGeomMat.h'
p1162
(lp1163
I1
ag1112
asS'c:/marmalade/7.3/modules/iwgeom/h/IwGeomSVec4.h'
p1164
(lp1165
I1
ag1112
asS'c:/marmalade/7.3/modules/iwgeom/h/IwGeomSqrt.h'
p1166
(lp1167
I1
ag1112
asS'c:/marmalade/7.3/modules/iwgeom/h/IwGeomQuat.h'
p1168
(lp1169
I1
ag1112
asS'c:/marmalade/7.3/modules/iwgeom/h/IwGeomIntersect.h'
p1170
(lp1171
I1
ag1112
asS'c:/marmalade/7.3/modules/iwgeom/h/IwGeomFIntersect.h'
p1172
(lp1173
I1
ag1112
asS'c:/marmalade/7.3/modules/iwgeom/h/IwGeomFPlane.h'
p1174
(lp1175
I1
ag1112
asS'c:/marmalade/7.3/modules/iwgeom/h/IwGeomQuat.h.tpl'
p1176
(lp1177
I1
ag1112
asS'c:/marmalade/7.3/modules/iwgeom/h/IwGeomBBox.h'
p1178
(lp1179
I1
ag1112
asS'c:/marmalade/7.3/modules/iwgeom/h/IwGeomSVec2.h'
p1180
(lp1181
I1
ag1112
asS'c:/marmalade/7.3/modules/iwgeom/h/IwGeomVec.h.tpl'
p1182
(lp1183
I1
ag1112
assS'iwresmanager'
p1184
(dp1185
S'c:/marmalade/7.3/modules/iwresmanager/h/IwResHandler.h'
p1186
(lp1187
I1
a(dp1188
asS'c:/marmalade/7.3/modules/iwresmanager/h/IwResHandlerImage.h'
p1189
(lp1190
I1
ag1188
asS'c:/marmalade/7.3/modules/iwresmanager/docs/iwresmanager.config.txt'
p1191
(lp1192
I1
ag1188
asS'c:/marmalade/7.3/modules/iwresmanager/h/IwResManager.h'
p1193
(lp1194
I1
ag1188
asS'c:/marmalade/7.3/modules/iwresmanager/h/IwResSerialise.h'
p1195
(lp1196
I1
ag1188
asS'c:/marmalade/7.3/modules/iwresmanager/iwresmanager.mkf'
p1197
(lp1198
I1
a(dp1199
asS'c:/marmalade/7.3/modules/iwresmanager/h/IwResGroup.h'
p1200
(lp1201
I1
ag1188
asS'c:/marmalade/7.3/modules/iwresmanager/h/IwResHandlerITX.h'
p1202
(lp1203
I1
ag1188
asS'c:/marmalade/7.3/modules/iwresmanager/h/IwResHandlerGROUP.h'
p1204
(lp1205
I1
ag1188
asS'c:/marmalade/7.3/modules/iwresmanager/h/IwResManagerClass.h'
p1206
(lp1207
I1
ag1188
assS'iwgx'
p1208
(dp1209
S'c:/marmalade/7.3/modules/iwgx/h/IwResHandlerMTL.h'
p1210
(lp1211
I1
a(dp1212
asS'c:/marmalade/7.3/modules/iwgx/h/IwGxTypes.h'
p1213
(lp1214
I1
ag1212
asS'c:/marmalade/7.3/modules/iwgx/h/IwMaterial.h'
p1215
(lp1216
I1
ag1212
asS'c:/marmalade/7.3/modules/iwgx/h/IwDebugPrim.h'
p1217
(lp1218
I1
ag1212
asS'c:/marmalade/7.3/modules/iwgx/h/IwGxFuncTable.h'
p1219
(lp1220
I1
ag1212
asS'c:/marmalade/7.3/modules/iwgx/h/IwGxMetrics.h'
p1221
(lp1222
I1
ag1212
asS'c:/marmalade/7.3/modules/iwgx/h/IwMatAnim.h'
p1223
(lp1224
I1
ag1212
asS'c:/marmalade/7.3/modules/iwgx/h/IwGxShaderTechnique.h'
p1225
(lp1226
I1
ag1212
asS'c:/marmalade/7.3/modules/iwgx/h/IwGxState.h'
p1227
(lp1228
I1
ag1212
asS'c:/marmalade/7.3/modules/iwgx/h/IwClip.h'
p1229
(lp1230
I1
ag1212
asS'c:/marmalade/7.3/modules/iwgx/h/IwTPage.h'
p1231
(lp1232
I1
ag1212
asS'c:/marmalade/7.3/modules/iwgx/docs/iwgx.config.txt'
p1233
(lp1234
I1
ag1212
asS'c:/marmalade/7.3/modules/iwgx/h/IwColour.h'
p1235
(lp1236
I1
ag1212
asS'c:/marmalade/7.3/modules/iwgx/h/IwGx.h'
p1237
(lp1238
I1
ag1212
asS'c:/marmalade/7.3/modules/iwgx/docs/iwgx_public.defines.txt'
p1239
(lp1240
I1
ag1212
asS'c:/marmalade/7.3/modules/iwgx/h/IwFColour.h'
p1241
(lp1242
I1
ag1212
asS'c:/marmalade/7.3/modules/iwgx/h/IwGxStream.h'
p1243
(lp1244
I1
ag1212
asS'c:/marmalade/7.3/modules/iwgx/h/IwClip.inl'
p1245
(lp1246
I1
ag1212
asS'c:/marmalade/7.3/modules/iwgx/iwgx.mkf'
p1247
(lp1248
I1
a(dp1249
asS'c:/marmalade/7.3/modules/iwgx/h/IwGxPrint.h'
p1250
(lp1251
I1
ag1212
asS'c:/marmalade/7.3/modules/iwgx/h/IwGxSurface.h'
p1252
(lp1253
I1
ag1212
asS'c:/marmalade/7.3/modules/iwgx/h/IwGxError.h'
p1254
(lp1255
I1
ag1212
asS'c:/marmalade/7.3/modules/iwgx/h/IwGxDebug.h'
p1256
(lp1257
I1
ag1212
asS'c:/marmalade/7.3/modules/iwgx/h/IwTexture.h'
p1258
(lp1259
I1
ag1212
asS'c:/marmalade/7.3/modules/iwgx/h/IwGxTransformSW.h'
p1260
(lp1261
I1
ag1212
assS'iw2dscenegraphcore'
p1262
(dp1263
S'c:/marmalade/7.3/modules/iw2dscenegraphcore/h/Iw2DSceneGraphCore.h'
p1264
(lp1265
I1
a(dp1266
asS'c:/marmalade/7.3/modules/iw2dscenegraphcore/iw2dscenegraphcore.mkf'
p1267
(lp1268
I1
a(dp1269
asS'c:/marmalade/7.3/modules/iw2dscenegraphcore/source/Iw2DSceneGraphCore.cpp'
p1270
(lp1271
I1
ag1266
assS'iwutil'
p1272
(dp1273
S'c:/marmalade/7.3/modules/iwutil/h/IwVariableBitField.h'
p1274
(lp1275
I1
a(dp1276
asS'c:/marmalade/7.3/modules/iwutil/h/IwManagedList.h'
p1277
(lp1278
I1
ag1276
asS'c:/marmalade/7.3/modules/iwutil/docs/iwutil.config.txt'
p1279
(lp1280
I1
ag1276
asS'c:/marmalade/7.3/modules/iwutil/h/IwUtilInitTerm.h'
p1281
(lp1282
I1
ag1276
asS'c:/marmalade/7.3/modules/iwutil/h/IwList.h'
p1283
(lp1284
I1
ag1276
asS'c:/marmalade/7.3/modules/iwutil/h/IwAllocator.h'
p1285
(lp1286
I1
ag1276
asS'c:/marmalade/7.3/modules/iwutil/h/IwUTF8.h'
p1287
(lp1288
I1
ag1276
asS'c:/marmalade/7.3/modules/iwutil/h/IwHashString.h'
p1289
(lp1290
I1
ag1276
asS'c:/marmalade/7.3/modules/iwutil/h/IwMath.h'
p1291
(lp1292
I1
ag1276
asS'c:/marmalade/7.3/modules/iwutil/h/IwTextParser.h'
p1293
(lp1294
I1
ag1276
asS'c:/marmalade/7.3/modules/iwutil/h/IwString.h'
p1295
(lp1296
I1
ag1276
asS'c:/marmalade/7.3/modules/iwutil/h/IwOptimiseSpeed.h'
p1297
(lp1298
I1
ag1276
asS'c:/marmalade/7.3/modules/iwutil/h/IwRuntime.h'
p1299
(lp1300
I1
ag1276
asS'c:/marmalade/7.3/modules/iwutil/h/IwOptimiseThumb.h'
p1301
(lp1302
I1
ag1276
asS'c:/marmalade/7.3/modules/iwutil/h/IwSerialise.h'
p1303
(lp1304
I1
ag1276
asS'c:/marmalade/7.3/modules/iwutil/h/IwAutoFile.h'
p1305
(lp1306
I1
ag1276
asS'c:/marmalade/7.3/modules/iwutil/h/IwOptimiseARM.h'
p1307
(lp1308
I1
ag1276
asS'c:/marmalade/7.3/modules/iwutil/h/IwPath.h'
p1309
(lp1310
I1
ag1276
asS'c:/marmalade/7.3/modules/iwutil/h/IwFile.h'
p1311
(lp1312
I1
ag1276
asS'c:/marmalade/7.3/modules/iwutil/h/IwTextParseable.h'
p1313
(lp1314
I1
ag1276
asS'c:/marmalade/7.3/modules/iwutil/h/IwMenu.h'
p1315
(lp1316
I1
ag1276
asS'c:/marmalade/7.3/modules/iwutil/h/IwImage.h'
p1317
(lp1318
I1
ag1276
asS'c:/marmalade/7.3/modules/iwutil/h/IwProfileMenu.h'
p1319
(lp1320
I1
ag1276
asS'c:/marmalade/7.3/modules/iwutil/h/IwDivTable.h'
p1321
(lp1322
I1
ag1276
asS'c:/marmalade/7.3/modules/iwutil/h/IwMemBucketHelpers.h'
p1323
(lp1324
I1
ag1276
asS'c:/marmalade/7.3/modules/iwutil/h/IwDebug.h'
p1325
(lp1326
I1
ag1276
asS'c:/marmalade/7.3/modules/iwutil/h/IwArray.h'
p1327
(lp1328
I1
ag1276
asS'c:/marmalade/7.3/modules/iwutil/iwutil.mkf'
p1329
(lp1330
I1
a(dp1331
asS'c:/marmalade/7.3/modules/iwutil/h/IwMemBucket.h'
p1332
(lp1333
I1
ag1276
asS'c:/marmalade/7.3/modules/iwutil/h/IwDivide.h'
p1334
(lp1335
I1
ag1276
asS'c:/marmalade/7.3/modules/iwutil/h/IwCopyingPtr.h'
p1336
(lp1337
I1
ag1276
asS'c:/marmalade/7.3/modules/iwutil/h/IwUtil.h'
p1338
(lp1339
I1
ag1276
asS'c:/marmalade/7.3/modules/iwutil/h/IwFibre.h'
p1340
(lp1341
I1
ag1276
asS'c:/marmalade/7.3/modules/iwutil/h/IwImageHelper.h'
p1342
(lp1343
I1
ag1276
asS'c:/marmalade/7.3/modules/iwutil/h/IwSingleton.h'
p1344
(lp1345
I1
ag1276
asS'c:/marmalade/7.3/modules/iwutil/h/IwEvent.h'
p1346
(lp1347
I1
ag1276
asS'c:/marmalade/7.3/modules/iwutil/h/IwTypes.h'
p1348
(lp1349
I1
ag1276
asS'c:/marmalade/7.3/modules/iwutil/h/IwMemManagerDL.h'
p1350
(lp1351
I1
ag1276
asS'c:/marmalade/7.3/modules/iwutil/h/IwKeymap.h'
p1352
(lp1353
I1
ag1276
asS'c:/marmalade/7.3/modules/iwutil/h/IwCore.h'
p1354
(lp1355
I1
ag1276
asS'c:/marmalade/7.3/modules/iwutil/h/IwChar.h'
p1356
(lp1357
I1
ag1276
asS'c:/marmalade/7.3/modules/iwutil/h/IwManaged.h'
p1358
(lp1359
I1
ag1276
asS'c:/marmalade/7.3/modules/iwutil/h/IwMemory.h'
p1360
(lp1361
I1
ag1276
asS'c:/marmalade/7.3/modules/iwutil/h/IwBuffer.h'
p1362
(lp1363
I1
ag1276
asS'c:/marmalade/7.3/modules/iwutil/h/IwTextParserITX.h'
p1364
(lp1365
I1
ag1276
asS'c:/marmalade/7.3/modules/iwutil/h/IwOptimiseSize.h'
p1366
(lp1367
I1
ag1276
asS'c:/marmalade/7.3/modules/iwutil/h/IwRandom.h'
p1368
(lp1369
I1
ag1276
asS'c:/marmalade/7.3/modules/iwutil/h/IwResource.h'
p1370
(lp1371
I1
ag1276
asS'c:/marmalade/7.3/modules/iwutil/h/IwUncopyable.h'
p1372
(lp1373
I1
ag1276
asS'c:/marmalade/7.3/modules/iwutil/h/IwClassFactory.h'
p1374
(lp1375
I1
ag1276
asssS'(zlib)'
p1376
(dp1377
S'c:/marmalade/7.3/modules/third_party/zlib/zlib.mkf'
p1378
(lp1379
I1
a(dp1380
asg975
(dp1381
S'c:/marmalade/7.3/modules/third_party/zlib/h/zlib.h'
p1382
(lp1383
I1
a(dp1384
asS'c:/marmalade/7.3/modules/third_party/zlib/h/zconf.h'
p1385
(lp1386
I1
ag1384
asssS'(iwtween)'
p1387
(dp1388
S'c:/marmalade/7.3/modules/iwtween/source/IwTween.cpp'
p1389
(lp1390
I1
a(dp1391
asS'c:/marmalade/7.3/modules/iwtween/h/IwTween.h'
p1392
(lp1393
I1
ag1391
asS'c:/marmalade/7.3/modules/iwtween/iwtween.mkf'
p1394
(lp1395
I1
a(dp1396
asssS'files'
p1397
(dp1398
S'IwGxFontPreparedData.h'
p1399
g300
(cmkb_main
File
p1400
g302
Ntp1401
Rp1402
(dp1403
S'flags'
p1404
g1090
sS'group'
p1405
(lp1406
S"'Marmalade Studio'"
p1407
ag1086
asg326
g1091
sbsS'iterator'
p1408
g300
(g1400
g302
Ntp1409
Rp1410
(dp1411
g1404
(dp1412
sg1405
(lp1413
S"'Marmalade System (S3E)'"
p1414
aS'stdc headers'
p1415
aS'c++'
p1416
asg326
S'c:/marmalade/7.3/s3e/h/std/c++/iterator'
p1417
sbsS'IwGL.h'
p1418
g300
(g1400
g302
Ntp1419
Rp1420
(dp1421
g1404
g1066
sg1405
(lp1422
S"'Marmalade Studio'"
p1423
ag1062
asg326
g1064
sbsS's3e.h'
p1424
g300
(g1400
g302
Ntp1425
Rp1426
(dp1427
g1404
g1412
sg1405
(lp1428
g1414
asg326
S'c:/marmalade/7.3/s3e/h/s3e.h'
p1429
sbsS'errno.h'
p1430
g300
(g1400
g302
Ntp1431
Rp1432
(dp1433
g1404
g1412
sg1405
(lp1434
g1414
aS'stdc headers'
p1435
asg326
S'c:/marmalade/7.3/s3e/h/std/errno.h'
p1436
sbsS'IwSingleton.h'
p1437
g300
(g1400
g302
Ntp1438
Rp1439
(dp1440
g1404
g1276
sg1405
(lp1441
S"'Marmalade Studio'"
p1442
ag1272
asg326
g1344
sbsS'dlfcn.h'
p1443
g300
(g1400
g302
Ntp1444
Rp1445
(dp1446
g1404
g1412
sg1405
g1434
sg326
S'c:/marmalade/7.3/s3e/h/std/dlfcn.h'
p1447
sbsS'stdio_streambuf'
p1448
g300
(g1400
g302
Ntp1449
Rp1450
(dp1451
g1404
g1412
sg1405
g1413
sg326
S'c:/marmalade/7.3/s3e/h/std/c++/stdio_streambuf'
p1452
sbsS'sched.h'
p1453
g300
(g1400
g302
Ntp1454
Rp1455
(dp1456
g1404
g1412
sg1405
g1434
sg326
S'c:/marmalade/7.3/s3e/h/std/sched.h'
p1457
sbsS'IwGeomFMat2D.h'
p1458
g300
(g1400
g302
Ntp1459
Rp1460
(dp1461
g1404
g1112
sg1405
(lp1462
S"'Marmalade Studio'"
p1463
ag1108
asg326
g1143
sbsS's3eExt.h'
p1464
g300
(g1400
g302
Ntp1465
Rp1466
(dp1467
g1404
g1412
sg1405
g1428
sg326
S'c:/marmalade/7.3/s3e/h/s3eExt.h'
p1468
sbsS'grp.h'
p1469
g300
(g1400
g302
Ntp1470
Rp1471
(dp1472
g1404
g1412
sg1405
g1434
sg326
S'c:/marmalade/7.3/s3e/h/std/grp.h'
p1473
sbsS'list'
p1474
g300
(g1400
g302
Ntp1475
Rp1476
(dp1477
g1404
g1412
sg1405
g1413
sg326
S'c:/marmalade/7.3/s3e/h/std/c++/list'
p1478
sbsS'IwGeomMat.h.tpl'
p1479
g300
(g1400
g302
Ntp1480
Rp1481
(dp1482
g1404
g1112
sg1405
g1462
sg326
g1149
sbsS'istream'
p1483
g300
(g1400
g302
Ntp1484
Rp1485
(dp1486
g1404
g1412
sg1405
g1413
sg326
S'c:/marmalade/7.3/s3e/h/std/c++/istream'
p1487
sbsS'jpeglib.h'
p1488
g300
(g1400
g302
Ntp1489
Rp1490
(dp1491
g1404
g979
sg1405
(lp1492
g973
ag975
asg326
g977
sbsS'iw2d_public.defines.txt'
p1493
g300
(g1400
g302
Ntp1494
Rp1495
(dp1496
g1404
g1081
sg1405
(lp1497
S"'Marmalade Studio'"
p1498
ag1074
asg326
g1082
sbsS'iostream.h'
p1499
g300
(g1400
g302
Ntp1500
Rp1501
(dp1502
g1404
g1412
sg1405
g1413
sg326
S'c:/marmalade/7.3/s3e/h/std/c++/iostream.h'
p1503
sbsS'string'
p1504
g300
(g1400
g302
Ntp1505
Rp1506
(dp1507
g1404
g1412
sg1405
g1413
sg326
S'c:/marmalade/7.3/s3e/h/std/c++/string'
p1508
sbsS'IwMemory.h'
p1509
g300
(g1400
g302
Ntp1510
Rp1511
(dp1512
g1404
g1276
sg1405
g1441
sg326
g1360
sbsS'IwGeomPlane.h'
p1513
g300
(g1400
g302
Ntp1514
Rp1515
(dp1516
g1404
g1112
sg1405
g1462
sg326
g1129
sbsS'iw2d.config.txt'
p1517
g300
(g1400
g302
Ntp1518
Rp1519
(dp1520
g1404
g1081
sg1405
g1497
sg326
g1084
sbsS'iomanip'
p1521
g300
(g1400
g302
Ntp1522
Rp1523
(dp1524
g1404
g1412
sg1405
g1413
sg326
S'c:/marmalade/7.3/s3e/h/std/c++/iomanip'
p1525
sbsS'iwgeom.mkf'
p1526
g300
(g1400
g302
Ntp1527
Rp1528
(dp1529
g1404
g1155
sg1405
g1462
sg326
g1153
sbsS'IwGxError.h'
p1530
g300
(g1400
g302
Ntp1531
Rp1532
(dp1533
g1404
g1212
sg1405
(lp1534
S"'Marmalade Studio'"
p1535
ag1208
asg326
g1254
sbsS'IwGeom.h'
p1536
g300
(g1400
g302
Ntp1537
Rp1538
(dp1539
g1404
g1112
sg1405
g1462
sg326
g1158
sbsS'IwGeomVec4.h'
p1540
g300
(g1400
g302
Ntp1541
Rp1542
(dp1543
g1404
g1112
sg1405
g1462
sg326
g1121
sbsS'dir.h'
p1544
g300
(g1400
g302
Ntp1545
Rp1546
(dp1547
g1404
g1412
sg1405
(lp1548
g1414
aS'stdc headers'
p1549
aS'sys'
p1550
asg326
S'c:/marmalade/7.3/s3e/h/std/sys/dir.h'
p1551
sbsS'locale.h'
p1552
g300
(g1400
g302
Ntp1553
Rp1554
(dp1555
g1404
g1412
sg1405
g1434
sg326
S'c:/marmalade/7.3/s3e/h/std/locale.h'
p1556
sbsS'vector'
p1557
g300
(g1400
g302
Ntp1558
Rp1559
(dp1560
g1404
g1412
sg1405
g1413
sg326
S'c:/marmalade/7.3/s3e/h/std/c++/vector'
p1561
sbsS'IwManaged.h'
p1562
g300
(g1400
g302
Ntp1563
Rp1564
(dp1565
g1404
g1276
sg1405
g1441
sg326
g1358
sbsS's3eCompass.h'
p1566
g300
(g1400
g302
Ntp1567
Rp1568
(dp1569
g1404
g1412
sg1405
g1428
sg326
S'c:/marmalade/7.3/s3e/h/s3eCompass.h'
p1570
sbsS'cderror.h'
p1571
g300
(g1400
g302
Ntp1572
Rp1573
(dp1574
g1404
g979
sg1405
g1492
sg326
g994
sbsS'climits'
p1575
g300
(g1400
g302
Ntp1576
Rp1577
(dp1578
g1404
g1412
sg1405
g1413
sg326
S'c:/marmalade/7.3/s3e/h/std/c++/climits'
p1579
sbsS's3eVibra.h'
p1580
g300
(g1400
g302
Ntp1581
Rp1582
(dp1583
g1404
g1412
sg1405
g1428
sg326
S'c:/marmalade/7.3/s3e/h/s3eVibra.h'
p1584
sbsS'jversion.h'
p1585
g300
(g1400
g302
Ntp1586
Rp1587
(dp1588
g1404
g979
sg1405
g1492
sg326
g1004
sbsS'fnmatch.h'
p1589
g300
(g1400
g302
Ntp1590
Rp1591
(dp1592
g1404
g1412
sg1405
g1434
sg326
S'c:/marmalade/7.3/s3e/h/std/fnmatch.h'
p1593
sbsS'IwGxState.h'
p1594
g300
(g1400
g302
Ntp1595
Rp1596
(dp1597
g1404
g1212
sg1405
g1534
sg326
g1227
sbsS's3eAudio.h'
p1598
g300
(g1400
g302
Ntp1599
Rp1600
(dp1601
g1404
g1412
sg1405
g1428
sg326
S'c:/marmalade/7.3/s3e/h/s3eAudio.h'
p1602
sbsS's3eSurface.h'
p1603
g300
(g1400
g302
Ntp1604
Rp1605
(dp1606
g1404
g1412
sg1405
g1428
sg326
S'c:/marmalade/7.3/s3e/h/s3eSurface.h'
p1607
sbsS'new'
p1608
g300
(g1400
g302
Ntp1609
Rp1610
(dp1611
g1404
g1412
sg1405
g1413
sg326
S'c:/marmalade/7.3/s3e/h/std/c++/new'
p1612
sbsS's3eWindow.h'
p1613
g300
(g1400
g302
Ntp1614
Rp1615
(dp1616
g1404
g1412
sg1405
(lp1617
g1414
aS'Extensions'
p1618
asg326
S'c:/marmalade/7.3/s3e/h/ext/s3eWindow.h'
p1619
sbsS'IwBuffer.h'
p1620
g300
(g1400
g302
Ntp1621
Rp1622
(dp1623
g1404
g1276
sg1405
g1441
sg326
g1362
sbsS'IwGeomQuat.h.tpl'
p1624
g300
(g1400
g302
Ntp1625
Rp1626
(dp1627
g1404
g1112
sg1405
g1462
sg326
g1176
sbsS's3eOSExec.h'
p1628
g300
(g1400
g302
Ntp1629
Rp1630
(dp1631
g1404
g1412
sg1405
g1617
sg326
S'c:/marmalade/7.3/s3e/h/ext/s3eOSExec.h'
p1632
sbsS'IwGxTransformSW.h'
p1633
g300
(g1400
g302
Ntp1634
Rp1635
(dp1636
g1404
g1212
sg1405
g1534
sg326
g1260
sbsS'IwGxMetrics.h'
p1637
g300
(g1400
g302
Ntp1638
Rp1639
(dp1640
g1404
g1212
sg1405
g1534
sg326
g1221
sbsS'iwgxfont.config.txt'
p1641
g300
(g1400
g302
Ntp1642
Rp1643
(dp1644
g1404
g1090
sg1405
g1406
sg326
g1096
sbsS'gl2platform.h'
p1645
g300
(g1400
g302
Ntp1646
Rp1647
(dp1648
g1404
g1412
sg1405
(lp1649
g1414
aS'GL'
p1650
aS'GLES 2.0'
p1651
asg326
S'c:/marmalade/7.3/s3e/h/GLES2/gl2platform.h'
p1652
sbsS'iw2dscenegraph.defines.txt'
p1653
g300
(g1400
g302
Ntp1654
Rp1655
(dp1656
g1404
g1057
sg1405
(lp1657
S"'Marmalade Studio'"
p1658
ag1050
asg326
g1055
sbsS'queue'
p1659
g300
(g1400
g302
Ntp1660
Rp1661
(dp1662
g1404
g1412
sg1405
g1413
sg326
S'c:/marmalade/7.3/s3e/h/std/c++/queue'
p1663
sbsS'time_1.h'
p1664
g300
(g1400
g302
Ntp1665
Rp1666
(dp1667
g1404
g1412
sg1405
g1548
sg326
S'c:/marmalade/7.3/s3e/h/std/sys/time.h'
p1668
sbsS'Iw2D.h'
p1669
g300
(g1400
g302
Ntp1670
Rp1671
(dp1672
g1404
g1081
sg1405
g1497
sg326
g1079
sbsS'IwGeomVec2.h'
p1673
g300
(g1400
g302
Ntp1674
Rp1675
(dp1676
g1404
g1112
sg1405
g1462
sg326
g1139
sbsS's3eDevice.h'
p1677
g300
(g1400
g302
Ntp1678
Rp1679
(dp1680
g1404
g1412
sg1405
g1428
sg326
S'c:/marmalade/7.3/s3e/h/s3eDevice.h'
p1681
sbsS'malloc.h'
p1682
g300
(g1400
g302
Ntp1683
Rp1684
(dp1685
g1404
g1412
sg1405
g1434
sg326
S'c:/marmalade/7.3/s3e/h/std/malloc.h'
p1686
sbsS'stdarg.h'
p1687
g300
(g1400
g302
Ntp1688
Rp1689
(dp1690
g1404
g1412
sg1405
g1434
sg326
S'c:/marmalade/7.3/s3e/h/std/stdarg.h'
p1691
sbsS'IwGeomCore.h'
p1692
g300
(g1400
g302
Ntp1693
Rp1694
(dp1695
g1404
g1112
sg1405
g1462
sg326
g1131
sbsS'Iw2DSceneGraph.h'
p1696
g300
(g1400
g302
Ntp1697
Rp1698
(dp1699
g1404
g1057
sg1405
g1657
sg326
g1060
sbsS'endian.h'
p1700
g300
(g1400
g302
Ntp1701
Rp1702
(dp1703
g1404
g1412
sg1405
g1434
sg326
S'c:/marmalade/7.3/s3e/h/std/endian.h'
p1704
sbsS'gl3ext.h'
p1705
g300
(g1400
g302
Ntp1706
Rp1707
(dp1708
g1404
g1412
sg1405
(lp1709
g1414
aS'GL'
p1710
aS'GLES 3.0'
p1711
asg326
S'c:/marmalade/7.3/s3e/h/GLES3/gl3ext.h'
p1712
sbsS'glob.h'
p1713
g300
(g1400
g302
Ntp1714
Rp1715
(dp1716
g1404
g1412
sg1405
g1434
sg326
S'c:/marmalade/7.3/s3e/h/std/glob.h'
p1717
sbsS'fstream'
p1718
g300
(g1400
g302
Ntp1719
Rp1720
(dp1721
g1404
g1412
sg1405
g1413
sg326
S'c:/marmalade/7.3/s3e/h/std/c++/fstream'
p1722
sbsS's3eCamera.h'
p1723
g300
(g1400
g302
Ntp1724
Rp1725
(dp1726
g1404
g1412
sg1405
g1428
sg326
S'c:/marmalade/7.3/s3e/h/s3eCamera.h'
p1727
sbsS'jconfig.h'
p1728
g300
(g1400
g302
Ntp1729
Rp1730
(dp1731
g1404
g979
sg1405
g1492
sg326
g988
sbsS'memory'
p1732
g300
(g1400
g302
Ntp1733
Rp1734
(dp1735
g1404
g1412
sg1405
g1413
sg326
S'c:/marmalade/7.3/s3e/h/std/c++/memory'
p1736
sbsS'egl.h'
p1737
g300
(g1400
g302
Ntp1738
Rp1739
(dp1740
g1404
g1412
sg1405
(lp1741
g1414
aS'GL'
p1742
aS'EGL'
p1743
asg326
S'c:/marmalade/7.3/s3e/h/EGL/egl.h'
p1744
sbsS'IwClip.inl'
p1745
g300
(g1400
g302
Ntp1746
Rp1747
(dp1748
g1404
g1212
sg1405
g1534
sg326
g1245
sbsS'IwMemManagerDL.h'
p1749
g300
(g1400
g302
Ntp1750
Rp1751
(dp1752
g1404
g1276
sg1405
g1441
sg326
g1350
sbsS'deque'
p1753
g300
(g1400
g302
Ntp1754
Rp1755
(dp1756
g1404
g1412
sg1405
g1413
sg326
S'c:/marmalade/7.3/s3e/h/std/c++/deque'
p1757
sbsS'IwString.h'
p1758
g300
(g1400
g302
Ntp1759
Rp1760
(dp1761
g1404
g1276
sg1405
g1441
sg326
g1295
sbsS'cwchar'
p1762
g300
(g1400
g302
Ntp1763
Rp1764
(dp1765
g1404
g1412
sg1405
g1413
sg326
S'c:/marmalade/7.3/s3e/h/std/c++/cwchar'
p1766
sbsS'iwutil.mkf'
p1767
g300
(g1400
g302
Ntp1768
Rp1769
(dp1770
g1404
g1331
sg1405
g1441
sg326
g1329
sbsS'csignal'
p1771
g300
(g1400
g302
Ntp1772
Rp1773
(dp1774
g1404
g1412
sg1405
g1413
sg326
S'c:/marmalade/7.3/s3e/h/std/c++/csignal'
p1775
sbsS'float.h'
p1776
g300
(g1400
g302
Ntp1777
Rp1778
(dp1779
g1404
g1412
sg1405
g1434
sg326
S'c:/marmalade/7.3/s3e/h/std/float.h'
p1780
sbsS'pthread_alloc'
p1781
g300
(g1400
g302
Ntp1782
Rp1783
(dp1784
g1404
g1412
sg1405
g1413
sg326
S'c:/marmalade/7.3/s3e/h/std/c++/pthread_alloc'
p1785
sbsS'getopt.h'
p1786
g300
(g1400
g302
Ntp1787
Rp1788
(dp1789
g1404
g1412
sg1405
g1434
sg326
S'c:/marmalade/7.3/s3e/h/std/getopt.h'
p1790
sbsS'IwOptimiseARM.h'
p1791
g300
(g1400
g302
Ntp1792
Rp1793
(dp1794
g1404
g1276
sg1405
g1441
sg326
g1307
sbsS'times.h'
p1795
g300
(g1400
g302
Ntp1796
Rp1797
(dp1798
g1404
g1412
sg1405
g1548
sg326
S'c:/marmalade/7.3/s3e/h/std/sys/times.h'
p1799
sbsS'IwGeomFSphere.h'
p1800
g300
(g1400
g302
Ntp1801
Rp1802
(dp1803
g1404
g1112
sg1405
g1462
sg326
g1123
sbsS'IwTypes.h'
p1804
g300
(g1400
g302
Ntp1805
Rp1806
(dp1807
g1404
g1276
sg1405
g1441
sg326
g1348
sbsS'unistd.h'
p1808
g300
(g1400
g302
Ntp1809
Rp1810
(dp1811
g1404
g1412
sg1405
g1434
sg326
S'c:/marmalade/7.3/s3e/h/std/unistd.h'
p1812
sbsS's3eCompression.h'
p1813
g300
(g1400
g302
Ntp1814
Rp1815
(dp1816
g1404
g1412
sg1405
g1428
sg326
S'c:/marmalade/7.3/s3e/h/s3eCompression.h'
p1817
sbsS'langinfo.h'
p1818
g300
(g1400
g302
Ntp1819
Rp1820
(dp1821
g1404
g1412
sg1405
g1434
sg326
S'c:/marmalade/7.3/s3e/h/std/langinfo.h'
p1822
sbsS's3edebugHeap.h'
p1823
g300
(g1400
g302
Ntp1824
Rp1825
(dp1826
g1404
g1412
sg1405
g1617
sg326
S'c:/marmalade/7.3/s3e/h/ext/s3edebugHeap.h'
p1827
sbsS'AirplayVersion.h'
p1828
g300
(g1400
g302
Ntp1829
Rp1830
(dp1831
g1404
g1412
sg1405
g1428
sg326
S'c:/marmalade/7.3/s3e/h/AirplayVersion.h'
p1832
sbsS'gl2extimg.h'
p1833
g300
(g1400
g302
Ntp1834
Rp1835
(dp1836
g1404
g1412
sg1405
g1649
sg326
S'c:/marmalade/7.3/s3e/h/GLES2/gl2extimg.h'
p1837
sbsS'app.config.txt'
p1838
g300
(g1400
g302
Ntp1839
Rp1840
(dp1841
g1404
(dp1842
sg1405
g4
sg326
S'd:/src/marmalade/BallGame/data/app.config.txt'
p1843
sbsS'IwGeomSqrt.h'
p1844
g300
(g1400
g302
Ntp1845
Rp1846
(dp1847
g1404
g1112
sg1405
g1462
sg326
g1166
sbsS'tiniconv_int.h'
p1848
g300
(g1400
g302
Ntp1849
Rp1850
(dp1851
g1404
g1016
sg1405
(lp1852
g1009
asg326
g1014
sbsS'syslog.h'
p1853
g300
(g1400
g302
Ntp1854
Rp1855
(dp1856
g1404
g1412
sg1405
g1434
sg326
S'c:/marmalade/7.3/s3e/h/std/syslog.h'
p1857
sbsS'IwGxFontTypes.h'
p1858
g300
(g1400
g302
Ntp1859
Rp1860
(dp1861
g1404
g1090
sg1405
g1406
sg326
g1104
sbsS'IwGeomFIntersect.h'
p1862
g300
(g1400
g302
Ntp1863
Rp1864
(dp1865
g1404
g1112
sg1405
g1462
sg326
g1172
sbsS'hash_map'
p1866
g300
(g1400
g302
Ntp1867
Rp1868
(dp1869
g1404
g1412
sg1405
g1413
sg326
S'c:/marmalade/7.3/s3e/h/std/c++/hash_map'
p1870
sbsS's3e.mkf'
p1871
g300
(g1400
g302
Ntp1872
Rp1873
(dp1874
g1404
(dp1875
sg1405
g1428
sg326
S'c:/marmalade/7.3/s3e/s3e.mkf'
p1876
sbsS'IwGeomMat2D.h.tpl'
p1877
g300
(g1400
g302
Ntp1878
Rp1879
(dp1880
g1404
g1112
sg1405
g1462
sg326
g1141
sbsS's3eOSReadString.h'
p1881
g300
(g1400
g302
Ntp1882
Rp1883
(dp1884
g1404
g1412
sg1405
g1617
sg326
S'c:/marmalade/7.3/s3e/h/ext/s3eOSReadString.h'
p1885
sbsS'map'
p1886
g300
(g1400
g302
Ntp1887
Rp1888
(dp1889
g1404
g1412
sg1405
g1413
sg326
S'c:/marmalade/7.3/s3e/h/std/c++/map'
p1890
sbsS'iwtween.mkf'
p1891
g300
(g1400
g302
Ntp1892
Rp1893
(dp1894
g1404
g1396
sg1405
(lp1895
g1387
asg326
g1394
sbsS'IwOptimiseSpeed.h'
p1896
g300
(g1400
g302
Ntp1897
Rp1898
(dp1899
g1404
g1276
sg1405
g1441
sg326
g1297
sbsS'msl_string.h'
p1900
g300
(g1400
g302
Ntp1901
Rp1902
(dp1903
g1404
g1412
sg1405
g1413
sg326
S'c:/marmalade/7.3/s3e/h/std/c++/msl_string.h'
p1904
sbsS'select.h'
p1905
g300
(g1400
g302
Ntp1906
Rp1907
(dp1908
g1404
g1412
sg1405
g1548
sg326
S'c:/marmalade/7.3/s3e/h/std/sys/select.h'
p1909
sbsS'zlib.mkf'
p1910
g300
(g1400
g302
Ntp1911
Rp1912
(dp1913
g1404
g1380
sg1405
(lp1914
g1376
asg326
g1378
sbsS'signal.h'
p1915
g300
(g1400
g302
Ntp1916
Rp1917
(dp1918
g1404
g1412
sg1405
g1434
sg326
S'c:/marmalade/7.3/s3e/h/std/signal.h'
p1919
sbsS'sigcontext.h'
p1920
g300
(g1400
g302
Ntp1921
Rp1922
(dp1923
g1404
g1412
sg1405
g1434
sg326
S'c:/marmalade/7.3/s3e/h/std/sigcontext.h'
p1924
sbsS'libpng.mkf'
p1925
g300
(g1400
g302
Ntp1926
Rp1927
(dp1928
g1404
g1029
sg1405
(lp1929
g1019
asg326
g1027
sbsS's3eClipboard.h'
p1930
g300
(g1400
g302
Ntp1931
Rp1932
(dp1933
g1404
g1412
sg1405
g1428
sg326
S'c:/marmalade/7.3/s3e/h/s3eClipboard.h'
p1934
sbsS'IwGxFuncTable.h'
p1935
g300
(g1400
g302
Ntp1936
Rp1937
(dp1938
g1404
g1212
sg1405
g1534
sg326
g1219
sbsS'IwResHandlerGROUP.h'
p1939
g300
(g1400
g302
Ntp1940
Rp1941
(dp1942
g1404
g1188
sg1405
(lp1943
g1048
ag1184
asg326
g1204
sbsS's3eDebug.h'
p1944
g300
(g1400
g302
Ntp1945
Rp1946
(dp1947
g1404
g1412
sg1405
g1428
sg326
S'c:/marmalade/7.3/s3e/h/s3eDebug.h'
p1948
sbsS'socket.h'
p1949
g300
(g1400
g302
Ntp1950
Rp1951
(dp1952
g1404
g1412
sg1405
g1548
sg326
S'c:/marmalade/7.3/s3e/h/std/sys/socket.h'
p1953
sbsS'glext.h'
p1954
g300
(g1400
g302
Ntp1955
Rp1956
(dp1957
g1404
g1412
sg1405
(lp1958
g1414
aS'GL'
p1959
aS'GLES 1.x'
p1960
asg326
S'c:/marmalade/7.3/s3e/h/GLES/glext.h'
p1961
sbsS'typeinfo.h'
p1962
g300
(g1400
g302
Ntp1963
Rp1964
(dp1965
g1404
g1412
sg1405
g1413
sg326
S'c:/marmalade/7.3/s3e/h/std/c++/typeinfo.h'
p1966
sbsS'typeinfo'
p1967
g300
(g1400
g302
Ntp1968
Rp1969
(dp1970
g1404
g1412
sg1405
g1413
sg326
S'c:/marmalade/7.3/s3e/h/std/c++/typeinfo'
p1971
sbsS'fstream.h'
p1972
g300
(g1400
g302
Ntp1973
Rp1974
(dp1975
g1404
g1412
sg1405
g1413
sg326
S'c:/marmalade/7.3/s3e/h/std/c++/fstream.h'
p1976
sbsS's3ePointer.h'
p1977
g300
(g1400
g302
Ntp1978
Rp1979
(dp1980
g1404
g1412
sg1405
g1428
sg326
S'c:/marmalade/7.3/s3e/h/s3ePointer.h'
p1981
sbsS'IwMemBucket.h'
p1982
g300
(g1400
g302
Ntp1983
Rp1984
(dp1985
g1404
g1276
sg1405
g1441
sg326
g1332
sbsS'PVRTexTool.h'
p1986
g300
(g1400
g302
Ntp1987
Rp1988
(dp1989
g1404
g1036
sg1405
(lp1990
g1030
ag1032
asg326
g1034
sbsS's3eGL.h'
p1991
g300
(g1400
g302
Ntp1992
Rp1993
(dp1994
g1404
g1412
sg1405
g1428
sg326
S'c:/marmalade/7.3/s3e/h/s3eGL.h'
p1995
sbsS'IwGeomFVec2.h'
p1996
g300
(g1400
g302
Ntp1997
Rp1998
(dp1999
g1404
g1112
sg1405
g1462
sg326
g1133
sbsS'IwGeomSVec4.h'
p2000
g300
(g1400
g302
Ntp2001
Rp2002
(dp2003
g1404
g1112
sg1405
g1462
sg326
g1164
sbsS'poll.h'
p2004
g300
(g1400
g302
Ntp2005
Rp2006
(dp2007
g1404
g1412
sg1405
g1434
sg326
S'c:/marmalade/7.3/s3e/h/std/poll.h'
p2008
sbsS'IwMatAnim.h'
p2009
g300
(g1400
g302
Ntp2010
Rp2011
(dp2012
g1404
g1212
sg1405
g1534
sg326
g1223
sbsS'PVRTexTool.defines.txt'
p2013
g300
(g1400
g302
Ntp2014
Rp2015
(dp2016
g1404
g1036
sg1405
(lp2017
g1030
ag1032
ag1037
asg326
g1041
sbsS'IwGx.h'
p2018
g300
(g1400
g302
Ntp2019
Rp2020
(dp2021
g1404
g1212
sg1405
g1534
sg326
g1237
sbsS'valarray'
p2022
g300
(g1400
g302
Ntp2023
Rp2024
(dp2025
g1404
g1412
sg1405
g1413
sg326
S'c:/marmalade/7.3/s3e/h/std/c++/valarray'
p2026
sbsS'iosfwd'
p2027
g300
(g1400
g302
Ntp2028
Rp2029
(dp2030
g1404
g1412
sg1405
g1413
sg326
S'c:/marmalade/7.3/s3e/h/std/c++/iosfwd'
p2031
sbsS'gl2.h'
p2032
g300
(g1400
g302
Ntp2033
Rp2034
(dp2035
g1404
g1412
sg1405
g1649
sg326
S'c:/marmalade/7.3/s3e/h/GLES2/gl2.h'
p2036
sbsS'jpegint.h'
p2037
g300
(g1400
g302
Ntp2038
Rp2039
(dp2040
g1404
g979
sg1405
g1492
sg326
g1002
sbsS'stdiostream.h'
p2041
g300
(g1400
g302
Ntp2042
Rp2043
(dp2044
g1404
g1412
sg1405
g1413
sg326
S'c:/marmalade/7.3/s3e/h/std/c++/stdiostream.h'
p2045
sbsS'mem.h'
p2046
g300
(g1400
g302
Ntp2047
Rp2048
(dp2049
g1404
g1412
sg1405
g1413
sg326
S'c:/marmalade/7.3/s3e/h/std/c++/mem.h'
p2050
sbsS'jerror.h'
p2051
g300
(g1400
g302
Ntp2052
Rp2053
(dp2054
g1404
g979
sg1405
g1492
sg326
g982
sbsS'zconf.h'
p2055
g300
(g1400
g302
Ntp2056
Rp2057
(dp2058
g1404
g1384
sg1405
(lp2059
g1376
ag975
asg326
g1385
sbsS's3e.config.txt'
p2060
g300
(g1400
g302
Ntp2061
Rp2062
(dp2063
g1404
g1412
sg1405
g1428
sg326
S'c:/marmalade/7.3/s3e/s3e.config.txt'
p2064
sbsS'numeric'
p2065
g300
(g1400
g302
Ntp2066
Rp2067
(dp2068
g1404
g1412
sg1405
g1413
sg326
S'c:/marmalade/7.3/s3e/h/std/c++/numeric'
p2069
sbsS'utime.h'
p2070
g300
(g1400
g302
Ntp2071
Rp2072
(dp2073
g1404
g1412
sg1405
g1434
sg326
S'c:/marmalade/7.3/s3e/h/std/utime.h'
p2074
sbsS'jdhuff.h'
p2075
g300
(g1400
g302
Ntp2076
Rp2077
(dp2078
g1404
g979
sg1405
g1492
sg326
g990
sbsS'IwGxStream.h'
p2079
g300
(g1400
g302
Ntp2080
Rp2081
(dp2082
g1404
g1212
sg1405
g1534
sg326
g1243
sbsS'IwImage.h'
p2083
g300
(g1400
g302
Ntp2084
Rp2085
(dp2086
g1404
g1276
sg1405
g1441
sg326
g1317
sbsS's3eImagePicker.h'
p2087
g300
(g1400
g302
Ntp2088
Rp2089
(dp2090
g1404
g1412
sg1405
g1617
sg326
S'c:/marmalade/7.3/s3e/h/ext/s3eImagePicker.h'
p2091
sbsS'IwTextParserITX.h'
p2092
g300
(g1400
g302
Ntp2093
Rp2094
(dp2095
g1404
g1276
sg1405
g1441
sg326
g1364
sbsS'stdlib.h'
p2096
g300
(g1400
g302
Ntp2097
Rp2098
(dp2099
g1404
g1412
sg1405
g1434
sg326
S'c:/marmalade/7.3/s3e/h/std/stdlib.h'
p2100
sbsS'IwCopyingPtr.h'
p2101
g300
(g1400
g302
Ntp2102
Rp2103
(dp2104
g1404
g1276
sg1405
g1441
sg326
g1336
sbsS'iostream'
p2105
g300
(g1400
g302
Ntp2106
Rp2107
(dp2108
g1404
g1412
sg1405
g1413
sg326
S'c:/marmalade/7.3/s3e/h/std/c++/iostream'
p2109
sbsS'png.h'
p2110
g300
(g1400
g302
Ntp2111
Rp2112
(dp2113
g1404
g1024
sg1405
(lp2114
g1019
ag975
asg326
g1025
sbsS'stddef.h'
p2115
g300
(g1400
g302
Ntp2116
Rp2117
(dp2118
g1404
g1412
sg1405
g1434
sg326
S'c:/marmalade/7.3/s3e/h/std/stddef.h'
p2119
sbsS'setjmp_win32.h'
p2120
g300
(g1400
g302
Ntp2121
Rp2122
(dp2123
g1404
g1412
sg1405
g1434
sg326
S'c:/marmalade/7.3/s3e/h/std/setjmp_win32.h'
p2124
sbsS'IwGxPrint.h'
p2125
g300
(g1400
g302
Ntp2126
Rp2127
(dp2128
g1404
g1212
sg1405
g1534
sg326
g1250
sbsS'iwgx_public.defines.txt'
p2129
g300
(g1400
g302
Ntp2130
Rp2131
(dp2132
g1404
g1212
sg1405
g1534
sg326
g1239
sbsS'streambuf.h'
p2133
g300
(g1400
g302
Ntp2134
Rp2135
(dp2136
g1404
g1412
sg1405
g1413
sg326
S'c:/marmalade/7.3/s3e/h/std/c++/streambuf.h'
p2137
sbsS'IwGeomFPlane.h'
p2138
g300
(g1400
g302
Ntp2139
Rp2140
(dp2141
g1404
g1112
sg1405
g1462
sg326
g1174
sbsS'wchar.h'
p2142
g300
(g1400
g302
Ntp2143
Rp2144
(dp2145
g1404
g1412
sg1405
g1434
sg326
S'c:/marmalade/7.3/s3e/h/std/wchar.h'
p2146
sbsS's3eCameraCapture.h'
p2147
g300
(g1400
g302
Ntp2148
Rp2149
(dp2150
g1404
g1412
sg1405
g1617
sg326
S'c:/marmalade/7.3/s3e/h/ext/s3eCameraCapture.h'
p2151
sbsS'eglext.h'
p2152
g300
(g1400
g302
Ntp2153
Rp2154
(dp2155
g1404
g1412
sg1405
g1741
sg326
S'c:/marmalade/7.3/s3e/h/EGL/eglext.h'
p2156
sbsS'IwResHandlerImage.h'
p2157
g300
(g1400
g302
Ntp2158
Rp2159
(dp2160
g1404
g1188
sg1405
g1943
sg326
g1189
sbsS'strstream.h'
p2161
g300
(g1400
g302
Ntp2162
Rp2163
(dp2164
g1404
g1412
sg1405
g1413
sg326
S'c:/marmalade/7.3/s3e/h/std/c++/strstream.h'
p2165
sbsS'tiniconv.h'
p2166
g300
(g1400
g302
Ntp2167
Rp2168
(dp2169
g1404
g1016
sg1405
g1852
sg326
g1017
sbsS'IwGLExt.h'
p2170
g300
(g1400
g302
Ntp2171
Rp2172
(dp2173
g1404
g1066
sg1405
g1422
sg326
g1070
sbsS'app.icf'
p2174
g300
(g1400
g302
Ntp2175
Rp2176
(dp2177
g1404
(dp2178
sg1405
g4
sg326
S'd:/src/marmalade/BallGame/data/app.icf'
p2179
sbsS'IwClassFactory.h'
p2180
g300
(g1400
g302
Ntp2181
Rp2182
(dp2183
g1404
g1276
sg1405
g1441
sg326
g1374
sbsS'file.h'
p2184
g300
(g1400
g302
Ntp2185
Rp2186
(dp2187
g1404
g1412
sg1405
g1548
sg326
S'c:/marmalade/7.3/s3e/h/std/sys/file.h'
p2188
sbsS'cstring'
p2189
g300
(g1400
g302
Ntp2190
Rp2191
(dp2192
g1404
g1412
sg1405
g1413
sg326
S'c:/marmalade/7.3/s3e/h/std/c++/cstring'
p2193
sbsS'iwutil.config.txt'
p2194
g300
(g1400
g302
Ntp2195
Rp2196
(dp2197
g1404
g1276
sg1405
g1441
sg326
g1279
sbsS's3eSMS.h'
p2198
g300
(g1400
g302
Ntp2199
Rp2200
(dp2201
g1404
g1412
sg1405
g1617
sg326
S'c:/marmalade/7.3/s3e/h/ext/s3eSMS.h'
p2202
sbsS'limits.h'
p2203
g300
(g1400
g302
Ntp2204
Rp2205
(dp2206
g1404
g1412
sg1405
g1434
sg326
S'c:/marmalade/7.3/s3e/h/std/limits.h'
p2207
sbsS'iwgl.config.txt'
p2208
g300
(g1400
g302
Ntp2209
Rp2210
(dp2211
g1404
g1066
sg1405
g1422
sg326
g1072
sbsS'IwMaterial.h'
p2212
g300
(g1400
g302
Ntp2213
Rp2214
(dp2215
g1404
g1212
sg1405
g1534
sg326
g1215
sbsS'PVRTexTool_interface.cpp'
p2216
g300
(g1400
g302
Ntp2217
Rp2218
(dp2219
g1404
g1036
sg1405
g2017
sg326
g1039
sbsS'IwGxSurface.h'
p2220
g300
(g1400
g302
Ntp2221
Rp2222
(dp2223
g1404
g1212
sg1405
g1534
sg326
g1252
sbsS's3eSocket.h'
p2224
g300
(g1400
g302
Ntp2225
Rp2226
(dp2227
g1404
g1412
sg1405
g1428
sg326
S'c:/marmalade/7.3/s3e/h/s3eSocket.h'
p2228
sbsS'IwAutoFile.h'
p2229
g300
(g1400
g302
Ntp2230
Rp2231
(dp2232
g1404
g1276
sg1405
g1441
sg326
g1305
sbsS'ipc.h'
p2233
g300
(g1400
g302
Ntp2234
Rp2235
(dp2236
g1404
g1412
sg1405
g1548
sg326
S'c:/marmalade/7.3/s3e/h/std/sys/ipc.h'
p2237
sbsS'poll_1.h'
p2238
g300
(g1400
g302
Ntp2239
Rp2240
(dp2241
g1404
g1412
sg1405
g1548
sg326
S'c:/marmalade/7.3/s3e/h/std/sys/poll.h'
p2242
sbsS's3eThread.h'
p2243
g300
(g1400
g302
Ntp2244
Rp2245
(dp2246
g1404
g1412
sg1405
g1428
sg326
S'c:/marmalade/7.3/s3e/h/s3eThread.h'
p2247
sbsS'ucontext.h'
p2248
g300
(g1400
g302
Ntp2249
Rp2250
(dp2251
g1404
g1412
sg1405
g1434
sg326
S'c:/marmalade/7.3/s3e/h/std/ucontext.h'
p2252
sbsS'time.h'
p2253
g300
(g1400
g302
Ntp2254
Rp2255
(dp2256
g1404
g1412
sg1405
g1434
sg326
S'c:/marmalade/7.3/s3e/h/std/time.h'
p2257
sbsS'jchuff.h'
p2258
g300
(g1400
g302
Ntp2259
Rp2260
(dp2261
g1404
g979
sg1405
g1492
sg326
g1000
sbsS's3eSoundRecord.h'
p2262
g300
(g1400
g302
Ntp2263
Rp2264
(dp2265
g1404
g1412
sg1405
g1428
sg326
S'c:/marmalade/7.3/s3e/h/s3eSoundRecord.h'
p2266
sbsS'IwFibre.h'
p2267
g300
(g1400
g302
Ntp2268
Rp2269
(dp2270
g1404
g1276
sg1405
g1441
sg326
g1340
sbsS's3eVersion.h'
p2271
g300
(g1400
g302
Ntp2272
Rp2273
(dp2274
g1404
g1412
sg1405
g1428
sg326
S'c:/marmalade/7.3/s3e/h/s3eVersion.h'
p2275
sbsS'IwGxFontGlyph.h'
p2276
g300
(g1400
g302
Ntp2277
Rp2278
(dp2279
g1404
g1090
sg1405
g1406
sg326
g1106
sbsS's3eTypes.h'
p2280
g300
(g1400
g302
Ntp2281
Rp2282
(dp2283
g1404
g1412
sg1405
g1428
sg326
S'c:/marmalade/7.3/s3e/h/s3eTypes.h'
p2284
sbsS'signal_2.h'
p2285
g300
(g1400
g302
Ntp2286
Rp2287
(dp2288
g1404
g1412
sg1405
g1413
sg326
S'c:/marmalade/7.3/s3e/h/std/c++/signal.h'
p2289
sbsS'termios.h'
p2290
g300
(g1400
g302
Ntp2291
Rp2292
(dp2293
g1404
g1412
sg1405
g1434
sg326
S'c:/marmalade/7.3/s3e/h/std/termios.h'
p2294
sbsS'iw2dscenegraph.mkf'
p2295
g300
(g1400
g302
Ntp2296
Rp2297
(dp2298
g1404
g1054
sg1405
g1657
sg326
g1052
sbsS'slist'
p2299
g300
(g1400
g302
Ntp2300
Rp2301
(dp2302
g1404
g1412
sg1405
g1413
sg326
S'c:/marmalade/7.3/s3e/h/std/c++/slist'
p2303
sbsS'cstdlib'
p2304
g300
(g1400
g302
Ntp2305
Rp2306
(dp2307
g1404
g1412
sg1405
g1413
sg326
S'c:/marmalade/7.3/s3e/h/std/c++/cstdlib'
p2308
sbsS's3eLocation.h'
p2309
g300
(g1400
g302
Ntp2310
Rp2311
(dp2312
g1404
g1412
sg1405
g1428
sg326
S'c:/marmalade/7.3/s3e/h/s3eLocation.h'
p2313
sbsS'IwMemBucketHelpers.h'
p2314
g300
(g1400
g302
Ntp2315
Rp2316
(dp2317
g1404
g1276
sg1405
g1441
sg326
g1323
sbsS's3eHash.h'
p2318
g300
(g1400
g302
Ntp2319
Rp2320
(dp2321
g1404
g1412
sg1405
g1428
sg326
S'c:/marmalade/7.3/s3e/h/s3eHash.h'
p2322
sbsS'IwGeomFMat.h'
p2323
g300
(g1400
g302
Ntp2324
Rp2325
(dp2326
g1404
g1112
sg1405
g1462
sg326
g1115
sbsS'type_traits.h'
p2327
g300
(g1400
g302
Ntp2328
Rp2329
(dp2330
g1404
g1412
sg1405
g1413
sg326
S'c:/marmalade/7.3/s3e/h/std/c++/type_traits.h'
p2331
sbsS'IwMenu.h'
p2332
g300
(g1400
g302
Ntp2333
Rp2334
(dp2335
g1404
g1276
sg1405
g1441
sg326
g1315
sbsS'IwResHandlerITX.h'
p2336
g300
(g1400
g302
Ntp2337
Rp2338
(dp2339
g1404
g1188
sg1405
g1943
sg326
g1202
sbsS'IwArray.h'
p2340
g300
(g1400
g302
Ntp2341
Rp2342
(dp2343
g1404
g1276
sg1405
g1441
sg326
g1327
sbsS'IwUTF8.h'
p2344
g300
(g1400
g302
Ntp2345
Rp2346
(dp2347
g1404
g1276
sg1405
g1441
sg326
g1287
sbsS'math_rvct.h'
p2348
g300
(g1400
g302
Ntp2349
Rp2350
(dp2351
g1404
g1412
sg1405
g1434
sg326
S'c:/marmalade/7.3/s3e/h/std/math_rvct.h'
p2352
sbsS'IwUtil.h'
p2353
g300
(g1400
g302
Ntp2354
Rp2355
(dp2356
g1404
g1276
sg1405
g1441
sg326
g1338
sbsS'IwFColour.h'
p2357
g300
(g1400
g302
Ntp2358
Rp2359
(dp2360
g1404
g1212
sg1405
g1534
sg326
g1241
sbsS'wctype.h'
p2361
g300
(g1400
g302
Ntp2362
Rp2363
(dp2364
g1404
g1412
sg1405
g1434
sg326
S'c:/marmalade/7.3/s3e/h/std/wctype.h'
p2365
sbsS'cstddef'
p2366
g300
(g1400
g302
Ntp2367
Rp2368
(dp2369
g1404
g1412
sg1405
g1413
sg326
S'c:/marmalade/7.3/s3e/h/std/c++/cstddef'
p2370
sbsS'assert.h'
p2371
g300
(g1400
g302
Ntp2372
Rp2373
(dp2374
g1404
g1412
sg1405
g1434
sg326
S'c:/marmalade/7.3/s3e/h/std/assert.h'
p2375
sbsS'mman.h'
p2376
g300
(g1400
g302
Ntp2377
Rp2378
(dp2379
g1404
g1412
sg1405
g1548
sg326
S'c:/marmalade/7.3/s3e/h/std/sys/mman.h'
p2380
sbsS'IwRandom.h'
p2381
g300
(g1400
g302
Ntp2382
Rp2383
(dp2384
g1404
g1276
sg1405
g1441
sg326
g1368
sbsS'libgen.h'
p2385
g300
(g1400
g302
Ntp2386
Rp2387
(dp2388
g1404
g1412
sg1405
g1434
sg326
S'c:/marmalade/7.3/s3e/h/std/libgen.h'
p2389
sbsS'utsname.h'
p2390
g300
(g1400
g302
Ntp2391
Rp2392
(dp2393
g1404
g1412
sg1405
g1548
sg326
S'c:/marmalade/7.3/s3e/h/std/sys/utsname.h'
p2394
sbsS'wait.h'
p2395
g300
(g1400
g302
Ntp2396
Rp2397
(dp2398
g1404
g1412
sg1405
g1548
sg326
S'c:/marmalade/7.3/s3e/h/std/sys/wait.h'
p2399
sbsS'param.h'
p2400
g300
(g1400
g302
Ntp2401
Rp2402
(dp2403
g1404
g1412
sg1405
g1548
sg326
S'c:/marmalade/7.3/s3e/h/std/sys/param.h'
p2404
sbsS'IwDivide.h'
p2405
g300
(g1400
g302
Ntp2406
Rp2407
(dp2408
g1404
g1276
sg1405
g1441
sg326
g1334
sbsS'Iw2DSceneGraphCore.cpp'
p2409
g300
(g1400
g302
Ntp2410
Rp2411
(dp2412
g1404
g1266
sg1405
(lp2413
S"'Marmalade Studio'"
p2414
ag1262
asg326
g1270
sbsS'IwResManager.h'
p2415
g300
(g1400
g302
Ntp2416
Rp2417
(dp2418
g1404
g1188
sg1405
g1943
sg326
g1193
sbsS'ostream'
p2419
g300
(g1400
g302
Ntp2420
Rp2421
(dp2422
g1404
g1412
sg1405
g1413
sg326
S'c:/marmalade/7.3/s3e/h/std/c++/ostream'
p2423
sbsS'cwctype'
p2424
g300
(g1400
g302
Ntp2425
Rp2426
(dp2427
g1404
g1412
sg1405
g1413
sg326
S'c:/marmalade/7.3/s3e/h/std/c++/cwctype'
p2428
sbsS'Ball.h'
p2429
g300
(g1400
g302
Ntp2430
Rp2431
(dp2432
g1404
g970
sg1405
(lp2433
g966
asg326
g971
sbsS'set'
p2434
g300
(g1400
g302
Ntp2435
Rp2436
(dp2437
g1404
g1412
sg1405
g1413
sg326
S'c:/marmalade/7.3/s3e/h/std/c++/set'
p2438
sbsS'IwGeomSQuat.h'
p2439
g300
(g1400
g302
Ntp2440
Rp2441
(dp2442
g1404
g1112
sg1405
g1462
sg326
g1113
sbsS'locale'
p2443
g300
(g1400
g302
Ntp2444
Rp2445
(dp2446
g1404
g1412
sg1405
g1413
sg326
S'c:/marmalade/7.3/s3e/h/std/c++/locale'
p2447
sbsS'cstdio'
p2448
g300
(g1400
g302
Ntp2449
Rp2450
(dp2451
g1404
g1412
sg1405
g1413
sg326
S'c:/marmalade/7.3/s3e/h/std/c++/cstdio'
p2452
sbsS'cdjpeg.h'
p2453
g300
(g1400
g302
Ntp2454
Rp2455
(dp2456
g1404
g979
sg1405
g1492
sg326
g984
sbsS'IwList.h'
p2457
g300
(g1400
g302
Ntp2458
Rp2459
(dp2460
g1404
g1276
sg1405
g1441
sg326
g1283
sbsS'inttypes.h'
p2461
g300
(g1400
g302
Ntp2462
Rp2463
(dp2464
g1404
g1412
sg1405
g1434
sg326
S'c:/marmalade/7.3/s3e/h/std/inttypes.h'
p2465
sbsS'dirent.h'
p2466
g300
(g1400
g302
Ntp2467
Rp2468
(dp2469
g1404
g1412
sg1405
g1434
sg326
S'c:/marmalade/7.3/s3e/h/std/dirent.h'
p2470
sbsS'IwGeomVec3.h'
p2471
g300
(g1400
g302
Ntp2472
Rp2473
(dp2474
g1404
g1112
sg1405
g1462
sg326
g1127
sbsS'transupp.h'
p2475
g300
(g1400
g302
Ntp2476
Rp2477
(dp2478
g1404
g979
sg1405
g1492
sg326
g986
sbsS'IwMath.h'
p2479
g300
(g1400
g302
Ntp2480
Rp2481
(dp2482
g1404
g1276
sg1405
g1441
sg326
g1291
sbsS'IwGeomQuat.h'
p2483
g300
(g1400
g302
Ntp2484
Rp2485
(dp2486
g1404
g1112
sg1405
g1462
sg326
g1168
sbsS'glplatform.h'
p2487
g300
(g1400
g302
Ntp2488
Rp2489
(dp2490
g1404
g1412
sg1405
g1958
sg326
S'c:/marmalade/7.3/s3e/h/GLES/glplatform.h'
p2491
sbsS'bitset'
p2492
g300
(g1400
g302
Ntp2493
Rp2494
(dp2495
g1404
g1412
sg1405
g1413
sg326
S'c:/marmalade/7.3/s3e/h/std/c++/bitset'
p2496
sbsS'alloca.h'
p2497
g300
(g1400
g302
Ntp2498
Rp2499
(dp2500
g1404
g1412
sg1405
g1434
sg326
S'c:/marmalade/7.3/s3e/h/std/alloca.h'
p2501
sbsS'IwResHandler.h'
p2502
g300
(g1400
g302
Ntp2503
Rp2504
(dp2505
g1404
g1188
sg1405
g1943
sg326
g1186
sbsS'IwResHandlerMTL.h'
p2506
g300
(g1400
g302
Ntp2507
Rp2508
(dp2509
g1404
g1212
sg1405
g1534
sg326
g1210
sbsS'IwRuntime.h'
p2510
g300
(g1400
g302
Ntp2511
Rp2512
(dp2513
g1404
g1276
sg1405
g1441
sg326
g1299
sbsS'limits'
p2514
g300
(g1400
g302
Ntp2515
Rp2516
(dp2517
g1404
g1412
sg1405
g1413
sg326
S'c:/marmalade/7.3/s3e/h/std/c++/limits'
p2518
sbsS'IwGeomBBox.h'
p2519
g300
(g1400
g302
Ntp2520
Rp2521
(dp2522
g1404
g1112
sg1405
g1462
sg326
g1178
sbsS's3eContacts.h'
p2523
g300
(g1400
g302
Ntp2524
Rp2525
(dp2526
g1404
g1412
sg1405
g1428
sg326
S'c:/marmalade/7.3/s3e/h/s3eContacts.h'
p2527
sbsS's3eLicense.h'
p2528
g300
(g1400
g302
Ntp2529
Rp2530
(dp2531
g1404
g1412
sg1405
g1428
sg326
S'c:/marmalade/7.3/s3e/h/s3eLicense.h'
p2532
sbsS'iwgx.config.txt'
p2533
g300
(g1400
g302
Ntp2534
Rp2535
(dp2536
g1404
g1212
sg1405
g1534
sg326
g1233
sbsS'IwTextParser.h'
p2537
g300
(g1400
g302
Ntp2538
Rp2539
(dp2540
g1404
g1276
sg1405
g1441
sg326
g1293
sbsS's3eTimer.h'
p2541
g300
(g1400
g302
Ntp2542
Rp2543
(dp2544
g1404
g1412
sg1405
g1428
sg326
S'c:/marmalade/7.3/s3e/h/s3eTimer.h'
p2545
sbsS'IwGeomVec.h'
p2546
g300
(g1400
g302
Ntp2547
Rp2548
(dp2549
g1404
g1112
sg1405
g1462
sg326
g1145
sbsS'IwSerialise.h'
p2550
g300
(g1400
g302
Ntp2551
Rp2552
(dp2553
g1404
g1276
sg1405
g1441
sg326
g1303
sbsS'cstdarg'
p2554
g300
(g1400
g302
Ntp2555
Rp2556
(dp2557
g1404
g1412
sg1405
g1413
sg326
S'c:/marmalade/7.3/s3e/h/std/c++/cstdarg'
p2558
sbsS'gl2ext.h'
p2559
g300
(g1400
g302
Ntp2560
Rp2561
(dp2562
g1404
g1412
sg1405
g1649
sg326
S'c:/marmalade/7.3/s3e/h/GLES2/gl2ext.h'
p2563
sbsS'IwChar.h'
p2564
g300
(g1400
g302
Ntp2565
Rp2566
(dp2567
g1404
g1276
sg1405
g1441
sg326
g1356
sbsS's3eSound.h'
p2568
g300
(g1400
g302
Ntp2569
Rp2570
(dp2571
g1404
g1412
sg1405
g1428
sg326
S'c:/marmalade/7.3/s3e/h/s3eSound.h'
p2572
sbsS'IwOptimiseThumb.h'
p2573
g300
(g1400
g302
Ntp2574
Rp2575
(dp2576
g1404
g1276
sg1405
g1441
sg326
g1301
sbsS'exception.h'
p2577
g300
(g1400
g302
Ntp2578
Rp2579
(dp2580
g1404
g1412
sg1405
g1413
sg326
S'c:/marmalade/7.3/s3e/h/std/c++/exception.h'
p2581
sbsS'iwgeom.config.txt'
p2582
g300
(g1400
g302
Ntp2583
Rp2584
(dp2585
g1404
g1112
sg1405
g1462
sg326
g1151
sbsS'iwgx.mkf'
p2586
g300
(g1400
g302
Ntp2587
Rp2588
(dp2589
g1404
g1249
sg1405
g1534
sg326
g1247
sbsS'gl.h'
p2590
g300
(g1400
g302
Ntp2591
Rp2592
(dp2593
g1404
g1412
sg1405
g1958
sg326
S'c:/marmalade/7.3/s3e/h/GLES/gl.h'
p2594
sbsS'zlib.h'
p2595
g300
(g1400
g302
Ntp2596
Rp2597
(dp2598
g1404
g1384
sg1405
g2059
sg326
g1382
sbsS'iwgl.mkf'
p2599
g300
(g1400
g302
Ntp2600
Rp2601
(dp2602
g1404
g1069
sg1405
g1422
sg326
g1067
sbsS'IwColour.h'
p2603
g300
(g1400
g302
Ntp2604
Rp2605
(dp2606
g1404
g1212
sg1405
g1534
sg326
g1235
sbsS's3eLibrary.h'
p2607
g300
(g1400
g302
Ntp2608
Rp2609
(dp2610
g1404
g1412
sg1405
g1617
sg326
S'c:/marmalade/7.3/s3e/h/ext/s3eLibrary.h'
p2611
sbsS'types.h'
p2612
g300
(g1400
g302
Ntp2613
Rp2614
(dp2615
g1404
g1412
sg1405
g1548
sg326
S'c:/marmalade/7.3/s3e/h/std/sys/types.h'
p2616
sbsS'ifaddrs.h'
p2617
g300
(g1400
g302
Ntp2618
Rp2619
(dp2620
g1404
g1412
sg1405
g1434
sg326
S'c:/marmalade/7.3/s3e/h/std/ifaddrs.h'
p2621
sbsS'strstream'
p2622
g300
(g1400
g302
Ntp2623
Rp2624
(dp2625
g1404
g1412
sg1405
g1413
sg326
S'c:/marmalade/7.3/s3e/h/std/c++/strstream'
p2626
sbsS'IwTween.cpp'
p2627
g300
(g1400
g302
Ntp2628
Rp2629
(dp2630
g1404
g1391
sg1405
g1895
sg326
g1389
sbsS'exception'
p2631
g300
(g1400
g302
Ntp2632
Rp2633
(dp2634
g1404
g1412
sg1405
g1413
sg326
S'c:/marmalade/7.3/s3e/h/std/c++/exception'
p2635
sbsS'rlocks.h'
p2636
g300
(g1400
g302
Ntp2637
Rp2638
(dp2639
g1404
g1412
sg1405
g1413
sg326
S'c:/marmalade/7.3/s3e/h/std/c++/rlocks.h'
p2640
sbsS'ioctl.h'
p2641
g300
(g1400
g302
Ntp2642
Rp2643
(dp2644
g1404
g1412
sg1405
g1548
sg326
S'c:/marmalade/7.3/s3e/h/std/sys/ioctl.h'
p2645
sbsS'rope'
p2646
g300
(g1400
g302
Ntp2647
Rp2648
(dp2649
g1404
g1412
sg1405
g1413
sg326
S'c:/marmalade/7.3/s3e/h/std/c++/rope'
p2650
sbsS'jinclude.h'
p2651
g300
(g1400
g302
Ntp2652
Rp2653
(dp2654
g1404
g979
sg1405
g1492
sg326
g998
sbsS'IwEvent.h'
p2655
g300
(g1400
g302
Ntp2656
Rp2657
(dp2658
g1404
g1276
sg1405
g1441
sg326
g1346
sbsS'IwOptimiseSize.h'
p2659
g300
(g1400
g302
Ntp2660
Rp2661
(dp2662
g1404
g1276
sg1405
g1441
sg326
g1366
sbsS'iwgxfont_public.defines.txt'
p2663
g300
(g1400
g302
Ntp2664
Rp2665
(dp2666
g1404
g1090
sg1405
g1406
sg326
g1098
sbsS'iconv.h'
p2667
g300
(g1400
g302
Ntp2668
Rp2669
(dp2670
g1404
g1412
sg1405
g1434
sg326
S'c:/marmalade/7.3/s3e/h/std/iconv.h'
p2671
sbsS'sendfile.h'
p2672
g300
(g1400
g302
Ntp2673
Rp2674
(dp2675
g1404
g1412
sg1405
g1548
sg326
S'c:/marmalade/7.3/s3e/h/std/sys/sendfile.h'
p2676
sbsS'IwGeomSphere.h'
p2677
g300
(g1400
g302
Ntp2678
Rp2679
(dp2680
g1404
g1112
sg1405
g1462
sg326
g1135
sbsS'tiniconv.mkf'
p2681
g300
(g1400
g302
Ntp2682
Rp2683
(dp2684
g1404
g1013
sg1405
g1852
sg326
g1011
sbsS'IwResManagerClass.h'
p2685
g300
(g1400
g302
Ntp2686
Rp2687
(dp2688
g1404
g1188
sg1405
g1943
sg326
g1206
sbsS'jdct.h'
p2689
g300
(g1400
g302
Ntp2690
Rp2691
(dp2692
g1404
g979
sg1405
g1492
sg326
g992
sbsS'cctype'
p2693
g300
(g1400
g302
Ntp2694
Rp2695
(dp2696
g1404
g1412
sg1405
g1413
sg326
S'c:/marmalade/7.3/s3e/h/std/c++/cctype'
p2697
sbsS's3eConfig.h'
p2698
g300
(g1400
g302
Ntp2699
Rp2700
(dp2701
g1404
g1412
sg1405
g1428
sg326
S'c:/marmalade/7.3/s3e/h/s3eConfig.h'
p2702
sbsS'IwHashString.h'
p2703
g300
(g1400
g302
Ntp2704
Rp2705
(dp2706
g1404
g1276
sg1405
g1441
sg326
g1289
sbsS'stat.h'
p2707
g300
(g1400
g302
Ntp2708
Rp2709
(dp2710
g1404
g1412
sg1405
g1548
sg326
S'c:/marmalade/7.3/s3e/h/std/sys/stat.h'
p2711
sbsS'byteswap.h'
p2712
g300
(g1400
g302
Ntp2713
Rp2714
(dp2715
g1404
g1412
sg1405
g1434
sg326
S'c:/marmalade/7.3/s3e/h/std/byteswap.h'
p2716
sbsS'iwresmanager.mkf'
p2717
g300
(g1400
g302
Ntp2718
Rp2719
(dp2720
g1404
g1199
sg1405
g1943
sg326
g1197
sbsS'IwUtilInitTerm.h'
p2721
g300
(g1400
g302
Ntp2722
Rp2723
(dp2724
g1404
g1276
sg1405
g1441
sg326
g1281
sbsS'pthread_1.h'
p2725
g300
(g1400
g302
Ntp2726
Rp2727
(dp2728
g1404
g1412
sg1405
g1413
sg326
S'c:/marmalade/7.3/s3e/h/std/c++/pthread.h'
p2729
sbsS'iw2d.mkf'
p2730
g300
(g1400
g302
Ntp2731
Rp2732
(dp2733
g1404
g1078
sg1405
g1497
sg326
g1076
sbsS'complex'
p2734
g300
(g1400
g302
Ntp2735
Rp2736
(dp2737
g1404
g1412
sg1405
g1413
sg326
S'c:/marmalade/7.3/s3e/h/std/c++/complex'
p2738
sbsS's3e.icf'
p2739
g300
(g1400
g302
Ntp2740
Rp2741
(dp2742
g1404
g1412
sg1405
g1428
sg326
S'c:/marmalade/7.3/s3e/s3e.icf'
p2743
sbsS'IwVariableBitField.h'
p2744
g300
(g1400
g302
Ntp2745
Rp2746
(dp2747
g1404
g1276
sg1405
g1441
sg326
g1274
sbsS'sem.h'
p2748
g300
(g1400
g302
Ntp2749
Rp2750
(dp2751
g1404
g1412
sg1405
g1548
sg326
S'c:/marmalade/7.3/s3e/h/std/sys/sem.h'
p2752
sbsS'IwGxFontState.h'
p2753
g300
(g1400
g302
Ntp2754
Rp2755
(dp2756
g1404
g1090
sg1405
g1406
sg326
g1100
sbsS'stdio.h'
p2757
g300
(g1400
g302
Ntp2758
Rp2759
(dp2760
g1404
g1412
sg1405
g1434
sg326
S'c:/marmalade/7.3/s3e/h/std/stdio.h'
p2761
sbsS'jmemsys.h'
p2762
g300
(g1400
g302
Ntp2763
Rp2764
(dp2765
g1404
g979
sg1405
g1492
sg326
g980
sbsS'ios'
p2766
g300
(g1400
g302
Ntp2767
Rp2768
(dp2769
g1404
g1412
sg1405
g1413
sg326
S'c:/marmalade/7.3/s3e/h/std/c++/ios'
p2770
sbsS'IwTween.h'
p2771
g300
(g1400
g302
Ntp2772
Rp2773
(dp2774
g1404
g1391
sg1405
g1895
sg326
g1392
sbsS'IwGeomFVec4.h'
p2775
g300
(g1400
g302
Ntp2776
Rp2777
(dp2778
g1404
g1112
sg1405
g1462
sg326
g1110
sbsS'stack'
p2779
g300
(g1400
g302
Ntp2780
Rp2781
(dp2782
g1404
g1412
sg1405
g1413
sg326
S'c:/marmalade/7.3/s3e/h/std/c++/stack'
p2783
sbsS'new.h'
p2784
g300
(g1400
g302
Ntp2785
Rp2786
(dp2787
g1404
g1412
sg1405
g1413
sg326
S'c:/marmalade/7.3/s3e/h/std/c++/new.h'
p2788
sbsS's3eEMail.h'
p2789
g300
(g1400
g302
Ntp2790
Rp2791
(dp2792
g1404
g1412
sg1405
g1617
sg326
S'c:/marmalade/7.3/s3e/h/ext/s3eEMail.h'
p2793
sbsS's3eVideo.h'
p2794
g300
(g1400
g302
Ntp2795
Rp2796
(dp2797
g1404
g1412
sg1405
g1428
sg326
S'c:/marmalade/7.3/s3e/h/s3eVideo.h'
p2798
sbsS'pngconf.h'
p2799
g300
(g1400
g302
Ntp2800
Rp2801
(dp2802
g1404
g1024
sg1405
g2114
sg326
g1022
sbsS'pwd.h'
p2803
g300
(g1400
g302
Ntp2804
Rp2805
(dp2806
g1404
g1412
sg1405
g1434
sg326
S'c:/marmalade/7.3/s3e/h/std/pwd.h'
p2807
sbsS'gl3.h'
p2808
g300
(g1400
g302
Ntp2809
Rp2810
(dp2811
g1404
g1412
sg1405
g1709
sg326
S'c:/marmalade/7.3/s3e/h/GLES3/gl3.h'
p2812
sbsS'IwClip.h'
p2813
g300
(g1400
g302
Ntp2814
Rp2815
(dp2816
g1404
g1212
sg1405
g1534
sg326
g1229
sbsS'Ball.cpp'
p2817
g300
(g1400
g302
Ntp2818
Rp2819
(dp2820
g1404
g970
sg1405
g2433
sg326
g968
sbsS'iwresmanager.config.txt'
p2821
g300
(g1400
g302
Ntp2822
Rp2823
(dp2824
g1404
g1188
sg1405
g1943
sg326
g1191
sbsS'IwGxShaderTechnique.h'
p2825
g300
(g1400
g302
Ntp2826
Rp2827
(dp2828
g1404
g1212
sg1405
g1534
sg326
g1225
sbsS'IwCore.h'
p2829
g300
(g1400
g302
Ntp2830
Rp2831
(dp2832
g1404
g1276
sg1405
g1441
sg326
g1354
sbsS'cfloat'
p2833
g300
(g1400
g302
Ntp2834
Rp2835
(dp2836
g1404
g1412
sg1405
g1413
sg326
S'c:/marmalade/7.3/s3e/h/std/c++/cfloat'
p2837
sbsS'IwGeomMat2D.h'
p2838
g300
(g1400
g302
Ntp2839
Rp2840
(dp2841
g1404
g1112
sg1405
g1462
sg326
g1119
sbsS'IwAllocator.h'
p2842
g300
(g1400
g302
Ntp2843
Rp2844
(dp2845
g1404
g1276
sg1405
g1441
sg326
g1285
sbsS'BallGame.cpp'
p2846
g300
(g1400
g302
Ntp2847
Rp2848
(dp2849
g1404
g970
sg1405
(lp2850
sg326
g1046
sbsS'IwPath.h'
p2851
g300
(g1400
g302
Ntp2852
Rp2853
(dp2854
g1404
g1276
sg1405
g1441
sg326
g1309
sbsS'iwgxfont.mkf'
p2855
g300
(g1400
g302
Ntp2856
Rp2857
(dp2858
g1404
g1095
sg1405
g1406
sg326
g1093
sbsS'IwTexture.h'
p2859
g300
(g1400
g302
Ntp2860
Rp2861
(dp2862
g1404
g1212
sg1405
g1534
sg326
g1258
sbsS'IwGeomVec.h.tpl'
p2863
g300
(g1400
g302
Ntp2864
Rp2865
(dp2866
g1404
g1112
sg1405
g1462
sg326
g1182
sbsS's3eAccelerometer.h'
p2867
g300
(g1400
g302
Ntp2868
Rp2869
(dp2870
g1404
g1412
sg1405
g1428
sg326
S'c:/marmalade/7.3/s3e/h/s3eAccelerometer.h'
p2871
sbsS'setjmp.h'
p2872
g300
(g1400
g302
Ntp2873
Rp2874
(dp2875
g1404
g1412
sg1405
g1434
sg326
S'c:/marmalade/7.3/s3e/h/std/setjmp.h'
p2876
sbsS'IwFile.h'
p2877
g300
(g1400
g302
Ntp2878
Rp2879
(dp2880
g1404
g1276
sg1405
g1441
sg326
g1311
sbsS'IwTextParseable.h'
p2881
g300
(g1400
g302
Ntp2882
Rp2883
(dp2884
g1404
g1276
sg1405
g1441
sg326
g1313
sbsS'istream.h'
p2885
g300
(g1400
g302
Ntp2886
Rp2887
(dp2888
g1404
g1412
sg1405
g1413
sg326
S'c:/marmalade/7.3/s3e/h/std/c++/istream.h'
p2889
sbsS'stdint.h'
p2890
g300
(g1400
g302
Ntp2891
Rp2892
(dp2893
g1404
g1412
sg1405
g1434
sg326
S'c:/marmalade/7.3/s3e/h/std/stdint.h'
p2894
sbsS'semaphore.h'
p2895
g300
(g1400
g302
Ntp2896
Rp2897
(dp2898
g1404
g1412
sg1405
g1434
sg326
S'c:/marmalade/7.3/s3e/h/std/semaphore.h'
p2899
sbsS'ctime'
p2900
g300
(g1400
g302
Ntp2901
Rp2902
(dp2903
g1404
g1412
sg1405
g1413
sg326
S'c:/marmalade/7.3/s3e/h/std/c++/ctime'
p2904
sbsS'sstream'
p2905
g300
(g1400
g302
Ntp2906
Rp2907
(dp2908
g1404
g1412
sg1405
g1413
sg326
S'c:/marmalade/7.3/s3e/h/std/c++/sstream'
p2909
sbsS'IwGeomFBBox.h'
p2910
g300
(g1400
g302
Ntp2911
Rp2912
(dp2913
g1404
g1112
sg1405
g1462
sg326
g1147
sbsS'IwDebugPrim.h'
p2914
g300
(g1400
g302
Ntp2915
Rp2916
(dp2917
g1404
g1212
sg1405
g1534
sg326
g1217
sbsS'IwGxFontContainer.h'
p2918
g300
(g1400
g302
Ntp2919
Rp2920
(dp2921
g1404
g1090
sg1405
g1406
sg326
g1102
sbsS'IwGeomSVec3.h'
p2922
g300
(g1400
g302
Ntp2923
Rp2924
(dp2925
g1404
g1112
sg1405
g1462
sg326
g1160
sbsS'iw2dscenegraphcore.mkf'
p2926
g300
(g1400
g302
Ntp2927
Rp2928
(dp2929
g1404
g1269
sg1405
g2413
sg326
g1267
sbsS'cassert'
p2930
g300
(g1400
g302
Ntp2931
Rp2932
(dp2933
g1404
g1412
sg1405
g1413
sg326
S'c:/marmalade/7.3/s3e/h/std/c++/cassert'
p2934
sbsS'IwGeomFVec3.h'
p2935
g300
(g1400
g302
Ntp2936
Rp2937
(dp2938
g1404
g1112
sg1405
g1462
sg326
g1125
sbsS'streambuf'
p2939
g300
(g1400
g302
Ntp2940
Rp2941
(dp2942
g1404
g1412
sg1405
g1413
sg326
S'c:/marmalade/7.3/s3e/h/std/c++/streambuf'
p2943
sbsS's3eMetrics.h'
p2944
g300
(g1400
g302
Ntp2945
Rp2946
(dp2947
g1404
g1412
sg1405
g1617
sg326
S'c:/marmalade/7.3/s3e/h/ext/s3eMetrics.h'
p2948
sbsS'IwGxFont.h'
p2949
g300
(g1400
g302
Ntp2950
Rp2951
(dp2952
g1404
g1090
sg1405
g1406
sg326
g1088
sbsS's3eSecureStorage.h'
p2953
g300
(g1400
g302
Ntp2954
Rp2955
(dp2956
g1404
g1412
sg1405
g1428
sg326
S'c:/marmalade/7.3/s3e/h/s3eSecureStorage.h'
p2957
sbsS'string.h'
p2958
g300
(g1400
g302
Ntp2959
Rp2960
(dp2961
g1404
g1412
sg1405
g1434
sg326
S'c:/marmalade/7.3/s3e/h/std/string.h'
p2962
sbsS'IwResource.h'
p2963
g300
(g1400
g302
Ntp2964
Rp2965
(dp2966
g1404
g1276
sg1405
g1441
sg326
g1370
sbsS'IwGeomSVec2.h'
p2967
g300
(g1400
g302
Ntp2968
Rp2969
(dp2970
g1404
g1112
sg1405
g1462
sg326
g1180
sbsS'libjpeg.mkf'
p2971
g300
(g1400
g302
Ntp2972
Rp2973
(dp2974
g1404
g1008
sg1405
(lp2975
g973
asg326
g1006
sbsS'IwGxDebug.h'
p2976
g300
(g1400
g302
Ntp2977
Rp2978
(dp2979
g1404
g1212
sg1405
g1534
sg326
g1256
sbsS'pthread_types.h'
p2980
g300
(g1400
g302
Ntp2981
Rp2982
(dp2983
g1404
g1412
sg1405
g1434
sg326
S'c:/marmalade/7.3/s3e/h/std/pthread_types.h'
p2984
sbsS'iomanip.h'
p2985
g300
(g1400
g302
Ntp2986
Rp2987
(dp2988
g1404
g1412
sg1405
g1413
sg326
S'c:/marmalade/7.3/s3e/h/std/c++/iomanip.h'
p2989
sbsS'IwKeymap.h'
p2990
g300
(g1400
g302
Ntp2991
Rp2992
(dp2993
g1404
g1276
sg1405
g1441
sg326
g1352
sbsS'IwDebug.h'
p2994
g300
(g1400
g302
Ntp2995
Rp2996
(dp2997
g1404
g1276
sg1405
g1441
sg326
g1325
sbsS's3eIOSBackgroundAudio.h'
p2998
g300
(g1400
g302
Ntp2999
Rp3000
(dp3001
g1404
g1412
sg1405
g1617
sg326
S'c:/marmalade/7.3/s3e/h/ext/s3eIOSBackgroundAudio.h'
p3002
sbsS'IwGeomMenu.h'
p3003
g300
(g1400
g302
Ntp3004
Rp3005
(dp3006
g1404
g1112
sg1405
g1462
sg326
g1117
sbsS'IwDivTable.h'
p3007
g300
(g1400
g302
Ntp3008
Rp3009
(dp3010
g1404
g1276
sg1405
g1441
sg326
g1321
sbsS'ctype.h'
p3011
g300
(g1400
g302
Ntp3012
Rp3013
(dp3014
g1404
g1412
sg1405
g1434
sg326
S'c:/marmalade/7.3/s3e/h/std/ctype.h'
p3015
sbsS'IwGeomMat.h'
p3016
g300
(g1400
g302
Ntp3017
Rp3018
(dp3019
g1404
g1112
sg1405
g1462
sg326
g1162
sbsS'IwResGroup.h'
p3020
g300
(g1400
g302
Ntp3021
Rp3022
(dp3023
g1404
g1188
sg1405
g1943
sg326
g1200
sbsS'signal_1.h'
p3024
g300
(g1400
g302
Ntp3025
Rp3026
(dp3027
g1404
g1412
sg1405
g1548
sg326
S'c:/marmalade/7.3/s3e/h/std/sys/signal.h'
p3028
sbsS'functional'
p3029
g300
(g1400
g302
Ntp3030
Rp3031
(dp3032
g1404
g1412
sg1405
g1413
sg326
S'c:/marmalade/7.3/s3e/h/std/c++/functional'
p3033
sbsS'shm.h'
p3034
g300
(g1400
g302
Ntp3035
Rp3036
(dp3037
g1404
g1412
sg1405
g1548
sg326
S'c:/marmalade/7.3/s3e/h/std/sys/shm.h'
p3038
sbsS'IwManagedList.h'
p3039
g300
(g1400
g302
Ntp3040
Rp3041
(dp3042
g1404
g1276
sg1405
g1441
sg326
g1277
sbsS'prctl.h'
p3043
g300
(g1400
g302
Ntp3044
Rp3045
(dp3046
g1404
g1412
sg1405
g1548
sg326
S'c:/marmalade/7.3/s3e/h/std/sys/prctl.h'
p3047
sbsS'un.h'
p3048
g300
(g1400
g302
Ntp3049
Rp3050
(dp3051
g1404
g1412
sg1405
g1548
sg326
S'c:/marmalade/7.3/s3e/h/std/sys/un.h'
p3052
sbsS'utility'
p3053
g300
(g1400
g302
Ntp3054
Rp3055
(dp3056
g1404
g1412
sg1405
g1413
sg326
S'c:/marmalade/7.3/s3e/h/std/c++/utility'
p3057
sbsS'IwGeomLegacy.h'
p3058
g300
(g1400
g302
Ntp3059
Rp3060
(dp3061
g1404
g1112
sg1405
g1462
sg326
g1137
sbsS'IwTPage.h'
p3062
g300
(g1400
g302
Ntp3063
Rp3064
(dp3065
g1404
g1212
sg1405
g1534
sg326
g1231
sbsS'IwResSerialise.h'
p3066
g300
(g1400
g302
Ntp3067
Rp3068
(dp3069
g1404
g1188
sg1405
g1943
sg326
g1195
sbsS's3eCrypto.h'
p3070
g300
(g1400
g302
Ntp3071
Rp3072
(dp3073
g1404
g1412
sg1405
g1428
sg326
S'c:/marmalade/7.3/s3e/h/s3eCrypto.h'
p3074
sbsS's3eKeyboard.h'
p3075
g300
(g1400
g302
Ntp3076
Rp3077
(dp3078
g1404
g1412
sg1405
g1428
sg326
S'c:/marmalade/7.3/s3e/h/s3eKeyboard.h'
p3079
sbsS'fcntl.h'
p3080
g300
(g1400
g302
Ntp3081
Rp3082
(dp3083
g1404
g1412
sg1405
g1434
sg326
S'c:/marmalade/7.3/s3e/h/std/fcntl.h'
p3084
sbsS'Iw2DSceneGraphCore.h'
p3085
g300
(g1400
g302
Ntp3086
Rp3087
(dp3088
g1404
g1266
sg1405
g2413
sg326
g1264
sbsS'memory.h'
p3089
g300
(g1400
g302
Ntp3090
Rp3091
(dp3092
g1404
g1412
sg1405
g1434
sg326
S'c:/marmalade/7.3/s3e/h/std/memory.h'
p3093
sbsS'pthread.h'
p3094
g300
(g1400
g302
Ntp3095
Rp3096
(dp3097
g1404
g1412
sg1405
g1434
sg326
S'c:/marmalade/7.3/s3e/h/std/pthread.h'
p3098
sbsS'IwGeomIntersect.h'
p3099
g300
(g1400
g302
Ntp3100
Rp3101
(dp3102
g1404
g1112
sg1405
g1462
sg326
g1170
sbsS'algorithm'
p3103
g300
(g1400
g302
Ntp3104
Rp3105
(dp3106
g1404
g1412
sg1405
g1413
sg326
S'c:/marmalade/7.3/s3e/h/std/c++/algorithm'
p3107
sbsS'egl_1.h'
p3108
g300
(g1400
g302
Ntp3109
Rp3110
(dp3111
g1404
g1412
sg1405
g1958
sg326
S'c:/marmalade/7.3/s3e/h/GLES/egl.h'
p3112
sbsS'Iw2DSceneGraph.cpp'
p3113
g300
(g1400
g302
Ntp3114
Rp3115
(dp3116
g1404
g1057
sg1405
g1657
sg326
g1058
sbsS'ostream.h'
p3117
g300
(g1400
g302
Ntp3118
Rp3119
(dp3120
g1404
g1412
sg1405
g1413
sg326
S'c:/marmalade/7.3/s3e/h/std/c++/ostream.h'
p3121
sbsS'stl_user_config.h'
p3122
g300
(g1400
g302
Ntp3123
Rp3124
(dp3125
g1404
g1412
sg1405
g1413
sg326
S'c:/marmalade/7.3/s3e/h/std/c++/stl_user_config.h'
p3126
sbsS'IwProfileMenu.h'
p3127
g300
(g1400
g302
Ntp3128
Rp3129
(dp3130
g1404
g1276
sg1405
g1441
sg326
g1319
sbsS'MarmaladeVersion.h'
p3131
g300
(g1400
g302
Ntp3132
Rp3133
(dp3134
g1404
g1412
sg1405
g1428
sg326
S'c:/marmalade/7.3/s3e/h/MarmaladeVersion.h'
p3135
sbsS'gl3platform.h'
p3136
g300
(g1400
g302
Ntp3137
Rp3138
(dp3139
g1404
g1412
sg1405
g1709
sg326
S'c:/marmalade/7.3/s3e/h/GLES3/gl3platform.h'
p3140
sbsS'ios.h'
p3141
g300
(g1400
g302
Ntp3142
Rp3143
(dp3144
g1404
g1412
sg1405
g1413
sg326
S'c:/marmalade/7.3/s3e/h/std/c++/ios.h'
p3145
sbsS'IwImageHelper.h'
p3146
g300
(g1400
g302
Ntp3147
Rp3148
(dp3149
g1404
g1276
sg1405
g1441
sg326
g1342
sbsS'hash_set'
p3150
g300
(g1400
g302
Ntp3151
Rp3152
(dp3153
g1404
g1412
sg1405
g1413
sg326
S'c:/marmalade/7.3/s3e/h/std/c++/hash_set'
p3154
sbsS'IwGeomFQuat.h'
p3155
g300
(g1400
g302
Ntp3156
Rp3157
(dp3158
g1404
g1112
sg1405
g1462
sg326
g1156
sbsS'jmorecfg.h'
p3159
g300
(g1400
g302
Ntp3160
Rp3161
(dp3162
g1404
g979
sg1405
g1492
sg326
g996
sbsS'eglplatform.h'
p3163
g300
(g1400
g302
Ntp3164
Rp3165
(dp3166
g1404
g1412
sg1405
g1741
sg326
S'c:/marmalade/7.3/s3e/h/EGL/eglplatform.h'
p3167
sbsS'cmath'
p3168
g300
(g1400
g302
Ntp3169
Rp3170
(dp3171
g1404
g1412
sg1405
g1413
sg326
S'c:/marmalade/7.3/s3e/h/std/c++/cmath'
p3172
sbsS'math_gcc.h'
p3173
g300
(g1400
g302
Ntp3174
Rp3175
(dp3176
g1404
g1412
sg1405
g1434
sg326
S'c:/marmalade/7.3/s3e/h/std/math_gcc.h'
p3177
sbsS's3eMemory.h'
p3178
g300
(g1400
g302
Ntp3179
Rp3180
(dp3181
g1404
g1412
sg1405
g1428
sg326
S'c:/marmalade/7.3/s3e/h/s3eMemory.h'
p3182
sbsS'strings.h'
p3183
g300
(g1400
g302
Ntp3184
Rp3185
(dp3186
g1404
g1412
sg1405
g1434
sg326
S'c:/marmalade/7.3/s3e/h/std/strings.h'
p3187
sbsS's3eFile.h'
p3188
g300
(g1400
g302
Ntp3189
Rp3190
(dp3191
g1404
g1412
sg1405
g1428
sg326
S'c:/marmalade/7.3/s3e/h/s3eFile.h'
p3192
sbsS'IwGxTypes.h'
p3193
g300
(g1400
g302
Ntp3194
Rp3195
(dp3196
g1404
g1212
sg1405
g1534
sg326
g1213
sbsS'cerrno'
p3197
g300
(g1400
g302
Ntp3198
Rp3199
(dp3200
g1404
g1412
sg1405
g1413
sg326
S'c:/marmalade/7.3/s3e/h/std/c++/cerrno'
p3201
sbsS'resource.h'
p3202
g300
(g1400
g302
Ntp3203
Rp3204
(dp3205
g1404
g1412
sg1405
g1548
sg326
S'c:/marmalade/7.3/s3e/h/std/sys/resource.h'
p3206
sbsS'clocale'
p3207
g300
(g1400
g302
Ntp3208
Rp3209
(dp3210
g1404
g1412
sg1405
g1413
sg326
S'c:/marmalade/7.3/s3e/h/std/c++/clocale'
p3211
sbsS'pvrtextool.mkf'
p3212
g300
(g1400
g302
Ntp3213
Rp3214
(dp3215
g1404
g1045
sg1405
g1990
sg326
g1043
sbsS'csetjmp'
p3216
g300
(g1400
g302
Ntp3217
Rp3218
(dp3219
g1404
g1412
sg1405
g1413
sg326
S'c:/marmalade/7.3/s3e/h/std/c++/csetjmp'
p3220
sbsS'netdb.h'
p3221
g300
(g1400
g302
Ntp3222
Rp3223
(dp3224
g1404
g1412
sg1405
g1434
sg326
S'c:/marmalade/7.3/s3e/h/std/netdb.h'
p3225
sbsS's3eAndroidJNI.h'
p3226
g300
(g1400
g302
Ntp3227
Rp3228
(dp3229
g1404
g1412
sg1405
g1617
sg326
S'c:/marmalade/7.3/s3e/h/ext/s3eAndroidJNI.h'
p3230
sbsS'stdexcept'
p3231
g300
(g1400
g302
Ntp3232
Rp3233
(dp3234
g1404
g1412
sg1405
g1413
sg326
S'c:/marmalade/7.3/s3e/h/std/c++/stdexcept'
p3235
sbsS'math.h'
p3236
g300
(g1400
g302
Ntp3237
Rp3238
(dp3239
g1404
g1412
sg1405
g1434
sg326
S'c:/marmalade/7.3/s3e/h/std/math.h'
p3240
sbsS'stdbool.h'
p3241
g300
(g1400
g302
Ntp3242
Rp3243
(dp3244
g1404
g1412
sg1405
g1434
sg326
S'c:/marmalade/7.3/s3e/h/std/stdbool.h'
p3245
sbsS'uio.h'
p3246
g300
(g1400
g302
Ntp3247
Rp3248
(dp3249
g1404
g1412
sg1405
g1548
sg326
S'c:/marmalade/7.3/s3e/h/std/sys/uio.h'
p3250
sbsS'IwUncopyable.h'
p3251
g300
(g1400
g302
Ntp3252
Rp3253
(dp3254
g1404
g1276
sg1405
g1441
sg326
g1372
sbssS'juice_build_type'
p3255
g4
sS'tests'
p3256
(lp3257
sS'project_name'
p3258
g308
sS'root_file'
p3259
g121
sS'current_root'
p3260
S'd:/src/marmalade/BallGame'
p3261
sS'dependencies'
p3262
(lp3263
sS'include_paths'
p3264
(lp3265
S'c:/marmalade/7.3/modules/iwutil/h'
p3266
aS'c:/marmalade/7.3/modules/third_party/libjpeg/h'
p3267
aS'c:/marmalade/7.3/modules/third_party/zlib/h'
p3268
aS'c:/marmalade/7.3/modules/third_party/libpng/h'
p3269
aS'c:/marmalade/7.3/modules/iw2dscenegraphcore/h'
p3270
aS'c:/marmalade/7.3/modules/iw2dscenegraph/h'
p3271
aS'c:/marmalade/7.3/modules/iw2d/h'
p3272
aS'c:/marmalade/7.3/modules/iwgx/h'
p3273
aS'c:/marmalade/7.3/modules/iwgl/h'
p3274
aS'c:/marmalade/7.3/modules/iwgeom/h'
p3275
aS'c:/marmalade/7.3/modules/iwresmanager/h'
p3276
aS'c:/marmalade/7.3/extensions/pvrtextool/h'
p3277
aS'c:/marmalade/7.3/modules/iwgxfont/h'
p3278
aS'c:/marmalade/7.3/modules/third_party/tiniconv/source'
p3279
aS'c:/marmalade/7.3/modules/iwtween/h'
p3280
aS'c:/marmalade/7.3/s3e/h'
p3281
aS'c:/marmalade/7.3/s3e/h/ext'
p3282
aS'c:/marmalade/7.3/s3e/h/std'
p3283
aS'c:/marmalade/7.3/s3e/h/std/c++'
p3284
aS'c:/marmalade/7.3/s3e/h/ext_legacy'
p3285
aS'c:/marmalade/7.3/s3e/h/legacy'
p3286
asS'weak_frameworks'
p3287
(lp3288
sS'extprojects'
p3289
(dp3290
sg564
(dp3291
g558
(lp3292
(g79
S'.'
p3293
I0
tp3294
assS'macro_types'
p3295
(dp3296
g499
I1
sg500
I0
sg501
I0
sg502
I0
sg503
I0
sg504
I0
sg505
I0
sg506
I0
sg507
I0
sg509
I0
sg510
I0
sg511
I0
sg512
I0
sg513
I0
sg515
I0
sg517
I0
sg518
I0
sg519
I0
sg520
I0
sg521
I0
sg522
I1
sg523
I0
sg524
I0
sg525
I0
sg526
I0
sg527
I01
sg528
I1
sg529
I0
sg530
I0
sg531
I0
sg532
I0
sg533
I0
sg535
I0
sg536
I0
ssS'commands'
p3297
(lp3298
sg566
(g959
S'VC12X'
p3299
S'X86ARM'
p3300
tp3301
sS'build_libs'
p3302
(dp3303
sg568
g0
sS'frameworks'
p3304
(lp3305
sS'environ'
p3306
(dp3307
sS'target_name_debug'
p3308
g308
sS'builders'
p3309
(dp3310
g558
(dp3311
S'.S'
p3312
(dp3313
S'rvct'
p3314
(lp3315
S'.obj'
p3316
aS'echo ARM Assembling(RVCT) ${SOURCE}...'
p3317
aS'c:/marmalade/7.3/s3e\\rvct\\bin\\armasm -o ${TARGET} ${SOURCE}'
p3318
asg422
(lp3319
g3316
aS'echo ARM Assembling(GCC) ${SOURCE}...'
p3320
aS'c:/marmalade/7.3/s3e\\gcc\\bin\\arm-none-eabi-gcc -c -o ${TARGET} ${SOURCE}'
p3321
asS'ppu'
p3322
(lp3323
S'.a'
p3324
aS'echo PPU Assembling(SNC) ${SOURCE}...'
p3325
aS'c:/marmalade/7.3/s3e\\rvct\\bin\\armasm -o ${TARGET} ${SOURCE}'
p3326
assS'.s'
p3327
g3313
sS'.vp'
p3328
(lp3329
NaS'"C:/Marmalade/7.3/s3e/python/python.exe" "c:/marmalade/7.3/modules/iwgx/tools/compile_shaders.py" ${SOURCE}'
p3330
asssS'extproject_names'
p3331
(lp3332
sbtp3333
.